
bin/riscv-sub.elf:     file format elf32-littleriscv


Disassembly of section .text:

00000000 <_start>:
   0:	00000113          	li	sp,0
   4:	00000193          	li	gp,0
   8:	40310233          	sub	tp,sp,gp
   c:	00d00e93          	li	t4,13
  10:	00000093          	li	ra,0
  14:	36121663          	bne	tp,ra,380 <_fail>
  18:	00100113          	li	sp,1
  1c:	00100193          	li	gp,1
  20:	40310233          	sub	tp,sp,gp
  24:	00e00e93          	li	t4,14
  28:	00000093          	li	ra,0
  2c:	34121a63          	bne	tp,ra,380 <_fail>
  30:	00300113          	li	sp,3
  34:	00700193          	li	gp,7
  38:	40310233          	sub	tp,sp,gp
  3c:	00f00e93          	li	t4,15
  40:	ffc00093          	li	ra,-4
  44:	32121e63          	bne	tp,ra,380 <_fail>
  48:	00000113          	li	sp,0
  4c:	ffff81b7          	lui	gp,0xffff8
  50:	40310233          	sub	tp,sp,gp
  54:	01100e93          	li	t4,17
  58:	000080b7          	lui	ra,0x8
  5c:	32121263          	bne	tp,ra,380 <_fail>
  60:	80000137          	lui	sp,0x80000
  64:	00000193          	li	gp,0
  68:	40310233          	sub	tp,sp,gp
  6c:	01200e93          	li	t4,18
  70:	800000b7          	lui	ra,0x80000
  74:	30121663          	bne	tp,ra,380 <_fail>
  78:	80000137          	lui	sp,0x80000
  7c:	ffff81b7          	lui	gp,0xffff8
  80:	40310233          	sub	tp,sp,gp
  84:	01300e93          	li	t4,19
  88:	800080b7          	lui	ra,0x80008
  8c:	2e121a63          	bne	tp,ra,380 <_fail>
  90:	00000113          	li	sp,0
  94:	000081b7          	lui	gp,0x8
  98:	fff18193          	addi	gp,gp,-1 # 7fff <__stack_top+0x5bff>
  9c:	40310233          	sub	tp,sp,gp
  a0:	01500e93          	li	t4,21
  a4:	ffff80b7          	lui	ra,0xffff8
  a8:	00108093          	addi	ra,ra,1 # ffff8001 <__stack_top+0xffff5c01>
  ac:	2c121a63          	bne	tp,ra,380 <_fail>
  b0:	80000137          	lui	sp,0x80000
  b4:	fff10113          	addi	sp,sp,-1 # 7fffffff <__stack_top+0x7fffdbff>
  b8:	00000193          	li	gp,0
  bc:	40310233          	sub	tp,sp,gp
  c0:	01600e93          	li	t4,22
  c4:	800000b7          	lui	ra,0x80000
  c8:	fff08093          	addi	ra,ra,-1 # 7fffffff <__stack_top+0x7fffdbff>
  cc:	2a121a63          	bne	tp,ra,380 <_fail>
  d0:	80000137          	lui	sp,0x80000
  d4:	fff10113          	addi	sp,sp,-1 # 7fffffff <__stack_top+0x7fffdbff>
  d8:	000081b7          	lui	gp,0x8
  dc:	fff18193          	addi	gp,gp,-1 # 7fff <__stack_top+0x5bff>
  e0:	40310233          	sub	tp,sp,gp
  e4:	01700e93          	li	t4,23
  e8:	7fff80b7          	lui	ra,0x7fff8
  ec:	28121a63          	bne	tp,ra,380 <_fail>
  f0:	80000137          	lui	sp,0x80000
  f4:	000081b7          	lui	gp,0x8
  f8:	fff18193          	addi	gp,gp,-1 # 7fff <__stack_top+0x5bff>
  fc:	40310233          	sub	tp,sp,gp
 100:	01900e93          	li	t4,25
 104:	7fff80b7          	lui	ra,0x7fff8
 108:	00108093          	addi	ra,ra,1 # 7fff8001 <__stack_top+0x7fff5c01>
 10c:	26121a63          	bne	tp,ra,380 <_fail>
 110:	80000137          	lui	sp,0x80000
 114:	fff10113          	addi	sp,sp,-1 # 7fffffff <__stack_top+0x7fffdbff>
 118:	ffff81b7          	lui	gp,0xffff8
 11c:	40310233          	sub	tp,sp,gp
 120:	01a00e93          	li	t4,26
 124:	800080b7          	lui	ra,0x80008
 128:	fff08093          	addi	ra,ra,-1 # 80007fff <__stack_top+0x80005bff>
 12c:	24121a63          	bne	tp,ra,380 <_fail>
 130:	00000113          	li	sp,0
 134:	fff00193          	li	gp,-1
 138:	40310233          	sub	tp,sp,gp
 13c:	01c00e93          	li	t4,28
 140:	00100093          	li	ra,1
 144:	22121e63          	bne	tp,ra,380 <_fail>
 148:	fff00113          	li	sp,-1
 14c:	00100193          	li	gp,1
 150:	40310233          	sub	tp,sp,gp
 154:	01d00e93          	li	t4,29
 158:	ffe00093          	li	ra,-2
 15c:	22121263          	bne	tp,ra,380 <_fail>
 160:	fff00113          	li	sp,-1
 164:	fff00193          	li	gp,-1
 168:	40310233          	sub	tp,sp,gp
 16c:	01e00e93          	li	t4,30
 170:	00000093          	li	ra,0
 174:	20121663          	bne	tp,ra,380 <_fail>
 178:	00d00113          	li	sp,13
 17c:	00b00193          	li	gp,11
 180:	40310133          	sub	sp,sp,gp
 184:	02400e93          	li	t4,36
 188:	00200093          	li	ra,2
 18c:	1e111a63          	bne	sp,ra,380 <_fail>
 190:	00e00113          	li	sp,14
 194:	00b00193          	li	gp,11
 198:	403101b3          	sub	gp,sp,gp
 19c:	02500e93          	li	t4,37
 1a0:	00300093          	li	ra,3
 1a4:	1c119e63          	bne	gp,ra,380 <_fail>
 1a8:	00d00113          	li	sp,13
 1ac:	40210133          	sub	sp,sp,sp
 1b0:	02600e93          	li	t4,38
 1b4:	00000093          	li	ra,0
 1b8:	1c111463          	bne	sp,ra,380 <_fail>
 1bc:	00d00113          	li	sp,13
 1c0:	00b00193          	li	gp,11
 1c4:	40310233          	sub	tp,sp,gp
 1c8:	00020393          	mv	t2,tp
 1cc:	02c00e93          	li	t4,44
 1d0:	00200093          	li	ra,2
 1d4:	1a139663          	bne	t2,ra,380 <_fail>
 1d8:	00e00113          	li	sp,14
 1dc:	00b00193          	li	gp,11
 1e0:	40310233          	sub	tp,sp,gp
 1e4:	00000013          	nop
 1e8:	00020393          	mv	t2,tp
 1ec:	02d00e93          	li	t4,45
 1f0:	00300093          	li	ra,3
 1f4:	18139663          	bne	t2,ra,380 <_fail>
 1f8:	00f00113          	li	sp,15
 1fc:	00b00193          	li	gp,11
 200:	40310233          	sub	tp,sp,gp
 204:	00000013          	nop
 208:	00000013          	nop
 20c:	00020393          	mv	t2,tp
 210:	02e00e93          	li	t4,46
 214:	00400093          	li	ra,4
 218:	16139463          	bne	t2,ra,380 <_fail>
 21c:	00d00113          	li	sp,13
 220:	00b00193          	li	gp,11
 224:	40310233          	sub	tp,sp,gp
 228:	03000e93          	li	t4,48
 22c:	00200093          	li	ra,2
 230:	14121863          	bne	tp,ra,380 <_fail>
 234:	00e00113          	li	sp,14
 238:	00b00193          	li	gp,11
 23c:	00000013          	nop
 240:	40310233          	sub	tp,sp,gp
 244:	03100e93          	li	t4,49
 248:	00300093          	li	ra,3
 24c:	12121a63          	bne	tp,ra,380 <_fail>
 250:	00f00113          	li	sp,15
 254:	00b00193          	li	gp,11
 258:	00000013          	nop
 25c:	00000013          	nop
 260:	40310233          	sub	tp,sp,gp
 264:	03200e93          	li	t4,50
 268:	00400093          	li	ra,4
 26c:	10121a63          	bne	tp,ra,380 <_fail>
 270:	00d00113          	li	sp,13
 274:	00000013          	nop
 278:	00b00193          	li	gp,11
 27c:	40310233          	sub	tp,sp,gp
 280:	03300e93          	li	t4,51
 284:	00200093          	li	ra,2
 288:	0e121c63          	bne	tp,ra,380 <_fail>
 28c:	00e00113          	li	sp,14
 290:	00000013          	nop
 294:	00b00193          	li	gp,11
 298:	00000013          	nop
 29c:	40310233          	sub	tp,sp,gp
 2a0:	03400e93          	li	t4,52
 2a4:	00300093          	li	ra,3
 2a8:	0c121c63          	bne	tp,ra,380 <_fail>
 2ac:	00f00113          	li	sp,15
 2b0:	00000013          	nop
 2b4:	00000013          	nop
 2b8:	00b00193          	li	gp,11
 2bc:	40310233          	sub	tp,sp,gp
 2c0:	03500e93          	li	t4,53
 2c4:	00400093          	li	ra,4
 2c8:	0a121c63          	bne	tp,ra,380 <_fail>
 2cc:	00b00193          	li	gp,11
 2d0:	00d00113          	li	sp,13
 2d4:	40310233          	sub	tp,sp,gp
 2d8:	03700e93          	li	t4,55
 2dc:	00200093          	li	ra,2
 2e0:	0a121063          	bne	tp,ra,380 <_fail>
 2e4:	00b00193          	li	gp,11
 2e8:	00e00113          	li	sp,14
 2ec:	00000013          	nop
 2f0:	40310233          	sub	tp,sp,gp
 2f4:	03800e93          	li	t4,56
 2f8:	00300093          	li	ra,3
 2fc:	08121263          	bne	tp,ra,380 <_fail>
 300:	00b00193          	li	gp,11
 304:	00f00113          	li	sp,15
 308:	00000013          	nop
 30c:	00000013          	nop
 310:	40310233          	sub	tp,sp,gp
 314:	03900e93          	li	t4,57
 318:	00400093          	li	ra,4
 31c:	06121263          	bne	tp,ra,380 <_fail>
 320:	00b00193          	li	gp,11
 324:	00000013          	nop
 328:	00d00113          	li	sp,13
 32c:	40310233          	sub	tp,sp,gp
 330:	03a00e93          	li	t4,58
 334:	00200093          	li	ra,2
 338:	04121463          	bne	tp,ra,380 <_fail>
 33c:	00b00193          	li	gp,11
 340:	00000013          	nop
 344:	00e00113          	li	sp,14
 348:	00000013          	nop
 34c:	40310233          	sub	tp,sp,gp
 350:	03b00e93          	li	t4,59
 354:	00300093          	li	ra,3
 358:	02121463          	bne	tp,ra,380 <_fail>
 35c:	00b00193          	li	gp,11
 360:	00000013          	nop
 364:	00000013          	nop
 368:	00f00113          	li	sp,15
 36c:	40310233          	sub	tp,sp,gp
 370:	03c00e93          	li	t4,60
 374:	00400093          	li	ra,4
 378:	00121463          	bne	tp,ra,380 <_fail>

0000037c <_pass>:
 37c:	00100e93          	li	t4,1

00000380 <_fail>:
 380:	00100113          	li	sp,1
 384:	015e9073          	csrw	seed,t4
 388:	00201063          	bne	zero,sp,388 <_fail+0x8>
 38c:	00000013          	nop
 390:	00000013          	nop
 394:	00000013          	nop
 398:	00000013          	nop
 39c:	00000013          	nop
 3a0:	00000013          	nop
 3a4:	00000013          	nop
 3a8:	00000013          	nop
 3ac:	00000013          	nop
 3b0:	00000013          	nop
