
bin/riscv-lbu.elf:     file format elf32-littleriscv


Disassembly of section .text:

00000000 <_start>:
   0:	00002117          	auipc	sp,0x2
   4:	00010113          	mv	sp,sp
   8:	00014203          	lbu	tp,0(sp) # 2000 <tdata_0>
   c:	00d00e93          	li	t4,13
  10:	0ef00093          	li	ra,239
  14:	3e121a63          	bne	tp,ra,408 <_fail>
  18:	00002117          	auipc	sp,0x2
  1c:	fe810113          	addi	sp,sp,-24 # 2000 <tdata_0>
  20:	00114203          	lbu	tp,1(sp)
  24:	00e00e93          	li	t4,14
  28:	0be00093          	li	ra,190
  2c:	3c121e63          	bne	tp,ra,408 <_fail>
  30:	00002117          	auipc	sp,0x2
  34:	fd010113          	addi	sp,sp,-48 # 2000 <tdata_0>
  38:	00214203          	lbu	tp,2(sp)
  3c:	00f00e93          	li	t4,15
  40:	0ad00093          	li	ra,173
  44:	3c121263          	bne	tp,ra,408 <_fail>
  48:	00002117          	auipc	sp,0x2
  4c:	fb810113          	addi	sp,sp,-72 # 2000 <tdata_0>
  50:	00314203          	lbu	tp,3(sp)
  54:	01000e93          	li	t4,16
  58:	0de00093          	li	ra,222
  5c:	3a121663          	bne	tp,ra,408 <_fail>
  60:	00002117          	auipc	sp,0x2
  64:	fa010113          	addi	sp,sp,-96 # 2000 <tdata_0>
  68:	00414203          	lbu	tp,4(sp)
  6c:	01200e93          	li	t4,18
  70:	00100093          	li	ra,1
  74:	38121a63          	bne	tp,ra,408 <_fail>
  78:	00002117          	auipc	sp,0x2
  7c:	f8810113          	addi	sp,sp,-120 # 2000 <tdata_0>
  80:	00514203          	lbu	tp,5(sp)
  84:	01300e93          	li	t4,19
  88:	0ef00093          	li	ra,239
  8c:	36121e63          	bne	tp,ra,408 <_fail>
  90:	00002117          	auipc	sp,0x2
  94:	f7010113          	addi	sp,sp,-144 # 2000 <tdata_0>
  98:	00614203          	lbu	tp,6(sp)
  9c:	01400e93          	li	t4,20
  a0:	0cd00093          	li	ra,205
  a4:	36121263          	bne	tp,ra,408 <_fail>
  a8:	00002117          	auipc	sp,0x2
  ac:	f5810113          	addi	sp,sp,-168 # 2000 <tdata_0>
  b0:	00714203          	lbu	tp,7(sp)
  b4:	01500e93          	li	t4,21
  b8:	0ab00093          	li	ra,171
  bc:	34121663          	bne	tp,ra,408 <_fail>
  c0:	00002117          	auipc	sp,0x2
  c4:	f4010113          	addi	sp,sp,-192 # 2000 <tdata_0>
  c8:	00814203          	lbu	tp,8(sp)
  cc:	01700e93          	li	t4,23
  d0:	0f000093          	li	ra,240
  d4:	32121a63          	bne	tp,ra,408 <_fail>
  d8:	00002117          	auipc	sp,0x2
  dc:	f2810113          	addi	sp,sp,-216 # 2000 <tdata_0>
  e0:	00914203          	lbu	tp,9(sp)
  e4:	01800e93          	li	t4,24
  e8:	00f00093          	li	ra,15
  ec:	30121e63          	bne	tp,ra,408 <_fail>
  f0:	00002117          	auipc	sp,0x2
  f4:	f1010113          	addi	sp,sp,-240 # 2000 <tdata_0>
  f8:	00a14203          	lbu	tp,10(sp)
  fc:	01900e93          	li	t4,25
 100:	0f000093          	li	ra,240
 104:	30121263          	bne	tp,ra,408 <_fail>
 108:	00002117          	auipc	sp,0x2
 10c:	ef810113          	addi	sp,sp,-264 # 2000 <tdata_0>
 110:	00b14203          	lbu	tp,11(sp)
 114:	01a00e93          	li	t4,26
 118:	00f00093          	li	ra,15
 11c:	2e121663          	bne	tp,ra,408 <_fail>
 120:	00002117          	auipc	sp,0x2
 124:	ee810113          	addi	sp,sp,-280 # 2008 <tdata_2>
 128:	ff814203          	lbu	tp,-8(sp)
 12c:	01d00e93          	li	t4,29
 130:	0ef00093          	li	ra,239
 134:	2c121a63          	bne	tp,ra,408 <_fail>
 138:	00002117          	auipc	sp,0x2
 13c:	ed010113          	addi	sp,sp,-304 # 2008 <tdata_2>
 140:	ff914203          	lbu	tp,-7(sp)
 144:	01e00e93          	li	t4,30
 148:	0be00093          	li	ra,190
 14c:	2a121e63          	bne	tp,ra,408 <_fail>
 150:	00002117          	auipc	sp,0x2
 154:	eb810113          	addi	sp,sp,-328 # 2008 <tdata_2>
 158:	ffa14203          	lbu	tp,-6(sp)
 15c:	01f00e93          	li	t4,31
 160:	0ad00093          	li	ra,173
 164:	2a121263          	bne	tp,ra,408 <_fail>
 168:	00002117          	auipc	sp,0x2
 16c:	ea010113          	addi	sp,sp,-352 # 2008 <tdata_2>
 170:	ffb14203          	lbu	tp,-5(sp)
 174:	02000e93          	li	t4,32
 178:	0de00093          	li	ra,222
 17c:	28121663          	bne	tp,ra,408 <_fail>
 180:	00002117          	auipc	sp,0x2
 184:	e8810113          	addi	sp,sp,-376 # 2008 <tdata_2>
 188:	ffc14203          	lbu	tp,-4(sp)
 18c:	02200e93          	li	t4,34
 190:	00100093          	li	ra,1
 194:	26121a63          	bne	tp,ra,408 <_fail>
 198:	00002117          	auipc	sp,0x2
 19c:	e7010113          	addi	sp,sp,-400 # 2008 <tdata_2>
 1a0:	ffd14203          	lbu	tp,-3(sp)
 1a4:	02300e93          	li	t4,35
 1a8:	0ef00093          	li	ra,239
 1ac:	24121e63          	bne	tp,ra,408 <_fail>
 1b0:	00002117          	auipc	sp,0x2
 1b4:	e5810113          	addi	sp,sp,-424 # 2008 <tdata_2>
 1b8:	ffe14203          	lbu	tp,-2(sp)
 1bc:	02400e93          	li	t4,36
 1c0:	0cd00093          	li	ra,205
 1c4:	24121263          	bne	tp,ra,408 <_fail>
 1c8:	00002117          	auipc	sp,0x2
 1cc:	e4010113          	addi	sp,sp,-448 # 2008 <tdata_2>
 1d0:	fff14203          	lbu	tp,-1(sp)
 1d4:	02500e93          	li	t4,37
 1d8:	0ab00093          	li	ra,171
 1dc:	22121663          	bne	tp,ra,408 <_fail>
 1e0:	00002117          	auipc	sp,0x2
 1e4:	e2810113          	addi	sp,sp,-472 # 2008 <tdata_2>
 1e8:	00014203          	lbu	tp,0(sp)
 1ec:	02700e93          	li	t4,39
 1f0:	0f000093          	li	ra,240
 1f4:	20121a63          	bne	tp,ra,408 <_fail>
 1f8:	00002117          	auipc	sp,0x2
 1fc:	e1010113          	addi	sp,sp,-496 # 2008 <tdata_2>
 200:	00114203          	lbu	tp,1(sp)
 204:	02800e93          	li	t4,40
 208:	00f00093          	li	ra,15
 20c:	1e121e63          	bne	tp,ra,408 <_fail>
 210:	00002117          	auipc	sp,0x2
 214:	df810113          	addi	sp,sp,-520 # 2008 <tdata_2>
 218:	00214203          	lbu	tp,2(sp)
 21c:	02900e93          	li	t4,41
 220:	0f000093          	li	ra,240
 224:	1e121263          	bne	tp,ra,408 <_fail>
 228:	00002117          	auipc	sp,0x2
 22c:	de010113          	addi	sp,sp,-544 # 2008 <tdata_2>
 230:	00314203          	lbu	tp,3(sp)
 234:	02a00e93          	li	t4,42
 238:	00f00093          	li	ra,15
 23c:	1c121663          	bne	tp,ra,408 <_fail>
 240:	00002117          	auipc	sp,0x2
 244:	dc010113          	addi	sp,sp,-576 # 2000 <tdata_0>
 248:	fe010113          	addi	sp,sp,-32
 24c:	02114203          	lbu	tp,33(sp)
 250:	03100e93          	li	t4,49
 254:	0be00093          	li	ra,190
 258:	1a121863          	bne	tp,ra,408 <_fail>
 25c:	00002117          	auipc	sp,0x2
 260:	da410113          	addi	sp,sp,-604 # 2000 <tdata_0>
 264:	ffd10113          	addi	sp,sp,-3
 268:	00614203          	lbu	tp,6(sp)
 26c:	03800e93          	li	t4,56
 270:	0de00093          	li	ra,222
 274:	18121a63          	bne	tp,ra,408 <_fail>
 278:	00002117          	auipc	sp,0x2
 27c:	d8810113          	addi	sp,sp,-632 # 2000 <tdata_0>
 280:	00014203          	lbu	tp,0(sp)
 284:	00020393          	mv	t2,tp
 288:	03e00e93          	li	t4,62
 28c:	0ef00093          	li	ra,239
 290:	16139c63          	bne	t2,ra,408 <_fail>
 294:	00002117          	auipc	sp,0x2
 298:	d7410113          	addi	sp,sp,-652 # 2008 <tdata_2>
 29c:	00014203          	lbu	tp,0(sp)
 2a0:	00000013          	nop
 2a4:	00020393          	mv	t2,tp
 2a8:	03f00e93          	li	t4,63
 2ac:	0f000093          	li	ra,240
 2b0:	14139c63          	bne	t2,ra,408 <_fail>
 2b4:	00002117          	auipc	sp,0x2
 2b8:	d5410113          	addi	sp,sp,-684 # 2008 <tdata_2>
 2bc:	00114203          	lbu	tp,1(sp)
 2c0:	00000013          	nop
 2c4:	00000013          	nop
 2c8:	00020393          	mv	t2,tp
 2cc:	04000e93          	li	t4,64
 2d0:	00f00093          	li	ra,15
 2d4:	12139a63          	bne	t2,ra,408 <_fail>
 2d8:	00002117          	auipc	sp,0x2
 2dc:	d3010113          	addi	sp,sp,-720 # 2008 <tdata_2>
 2e0:	00214203          	lbu	tp,2(sp)
 2e4:	00000013          	nop
 2e8:	00000013          	nop
 2ec:	00000013          	nop
 2f0:	00020393          	mv	t2,tp
 2f4:	04100e93          	li	t4,65
 2f8:	0f000093          	li	ra,240
 2fc:	10139663          	bne	t2,ra,408 <_fail>
 300:	00002117          	auipc	sp,0x2
 304:	d0810113          	addi	sp,sp,-760 # 2008 <tdata_2>
 308:	00314203          	lbu	tp,3(sp)
 30c:	00000013          	nop
 310:	00000013          	nop
 314:	00000013          	nop
 318:	00000013          	nop
 31c:	00020393          	mv	t2,tp
 320:	04200e93          	li	t4,66
 324:	00f00093          	li	ra,15
 328:	0e139063          	bne	t2,ra,408 <_fail>
 32c:	00002117          	auipc	sp,0x2
 330:	cd410113          	addi	sp,sp,-812 # 2000 <tdata_0>
 334:	00014203          	lbu	tp,0(sp)
 338:	04400e93          	li	t4,68
 33c:	0ef00093          	li	ra,239
 340:	0c121463          	bne	tp,ra,408 <_fail>
 344:	00002117          	auipc	sp,0x2
 348:	cc410113          	addi	sp,sp,-828 # 2008 <tdata_2>
 34c:	00000013          	nop
 350:	00014203          	lbu	tp,0(sp)
 354:	04500e93          	li	t4,69
 358:	0f000093          	li	ra,240
 35c:	0a121663          	bne	tp,ra,408 <_fail>
 360:	00002117          	auipc	sp,0x2
 364:	ca810113          	addi	sp,sp,-856 # 2008 <tdata_2>
 368:	00000013          	nop
 36c:	00000013          	nop
 370:	00114203          	lbu	tp,1(sp)
 374:	04600e93          	li	t4,70
 378:	00f00093          	li	ra,15
 37c:	08121663          	bne	tp,ra,408 <_fail>
 380:	00002117          	auipc	sp,0x2
 384:	c8810113          	addi	sp,sp,-888 # 2008 <tdata_2>
 388:	00000013          	nop
 38c:	00000013          	nop
 390:	00000013          	nop
 394:	00214203          	lbu	tp,2(sp)
 398:	04700e93          	li	t4,71
 39c:	0f000093          	li	ra,240
 3a0:	06121463          	bne	tp,ra,408 <_fail>
 3a4:	00002117          	auipc	sp,0x2
 3a8:	c6410113          	addi	sp,sp,-924 # 2008 <tdata_2>
 3ac:	00000013          	nop
 3b0:	00000013          	nop
 3b4:	00000013          	nop
 3b8:	00000013          	nop
 3bc:	00314203          	lbu	tp,3(sp)
 3c0:	04800e93          	li	t4,72
 3c4:	00f00093          	li	ra,15
 3c8:	04121063          	bne	tp,ra,408 <_fail>
 3cc:	00002217          	auipc	tp,0x2
 3d0:	c3420213          	addi	tp,tp,-972 # 2000 <tdata_0>
 3d4:	00124183          	lbu	gp,1(tp) # 1 <_start+0x1>
 3d8:	00200193          	li	gp,2
 3dc:	04f00e93          	li	t4,79
 3e0:	00200093          	li	ra,2
 3e4:	02119263          	bne	gp,ra,408 <_fail>
 3e8:	00002297          	auipc	t0,0x2
 3ec:	c1828293          	addi	t0,t0,-1000 # 2000 <tdata_0>
 3f0:	0012c303          	lbu	t1,1(t0)
 3f4:	00130393          	addi	t2,t1,1
 3f8:	05600e93          	li	t4,86
 3fc:	0bf00093          	li	ra,191
 400:	00139463          	bne	t2,ra,408 <_fail>

00000404 <_pass>:
 404:	00100e93          	li	t4,1

00000408 <_fail>:
 408:	00100113          	li	sp,1
 40c:	015e9073          	csrw	seed,t4
 410:	00201063          	bne	zero,sp,410 <_fail+0x8>
 414:	00000013          	nop
 418:	00000013          	nop
 41c:	00000013          	nop
 420:	00000013          	nop
 424:	00000013          	nop
 428:	00000013          	nop
 42c:	00000013          	nop
 430:	00000013          	nop
 434:	00000013          	nop
 438:	00000013          	nop
	...
