
bin/riscv-sh.elf:     file format elf32-littleriscv


Disassembly of section .text:

00000000 <_start>:
   0:	00002117          	auipc	sp,0x2
   4:	00010113          	mv	sp,sp
   8:	0000b1b7          	lui	gp,0xb
   c:	bcd18193          	addi	gp,gp,-1075 # abcd <__stack_top+0x879d>
  10:	00311023          	sh	gp,0(sp) # 2000 <tdata_0>
  14:	ffc00293          	li	t0,-4
  18:	00010113          	mv	sp,sp
  1c:	00517133          	and	sp,sp,t0
  20:	00012203          	lw	tp,0(sp)
  24:	00d00e93          	li	t4,13
  28:	deadb0b7          	lui	ra,0xdeadb
  2c:	bcd08093          	addi	ra,ra,-1075 # deadabcd <__stack_top+0xdead879d>
  30:	5c121c63          	bne	tp,ra,608 <_fail>
  34:	00002117          	auipc	sp,0x2
  38:	fcc10113          	addi	sp,sp,-52 # 2000 <tdata_0>
  3c:	0000b1b7          	lui	gp,0xb
  40:	bcd18193          	addi	gp,gp,-1075 # abcd <__stack_top+0x879d>
  44:	00311123          	sh	gp,2(sp)
  48:	ffc00293          	li	t0,-4
  4c:	00210113          	addi	sp,sp,2
  50:	00517133          	and	sp,sp,t0
  54:	00012203          	lw	tp,0(sp)
  58:	00e00e93          	li	t4,14
  5c:	abcdb0b7          	lui	ra,0xabcdb
  60:	bcd08093          	addi	ra,ra,-1075 # abcdabcd <__stack_top+0xabcd879d>
  64:	5a121263          	bne	tp,ra,608 <_fail>
  68:	00002117          	auipc	sp,0x2
  6c:	f9810113          	addi	sp,sp,-104 # 2000 <tdata_0>
  70:	000101b7          	lui	gp,0x10
  74:	fff18193          	addi	gp,gp,-1 # ffff <__stack_top+0xdbcf>
  78:	00311223          	sh	gp,4(sp)
  7c:	ffc00293          	li	t0,-4
  80:	00410113          	addi	sp,sp,4
  84:	00517133          	and	sp,sp,t0
  88:	00012203          	lw	tp,0(sp)
  8c:	00f00e93          	li	t4,15
  90:	deae00b7          	lui	ra,0xdeae0
  94:	fff08093          	addi	ra,ra,-1 # deadffff <__stack_top+0xdeaddbcf>
  98:	56121863          	bne	tp,ra,608 <_fail>
  9c:	00002117          	auipc	sp,0x2
  a0:	f6410113          	addi	sp,sp,-156 # 2000 <tdata_0>
  a4:	00000193          	li	gp,0
  a8:	00311323          	sh	gp,6(sp)
  ac:	ffc00293          	li	t0,-4
  b0:	00610113          	addi	sp,sp,6
  b4:	00517133          	and	sp,sp,t0
  b8:	00012203          	lw	tp,0(sp)
  bc:	01000e93          	li	t4,16
  c0:	000100b7          	lui	ra,0x10
  c4:	fff08093          	addi	ra,ra,-1 # ffff <__stack_top+0xdbcf>
  c8:	54121063          	bne	tp,ra,608 <_fail>
  cc:	00002117          	auipc	sp,0x2
  d0:	f4410113          	addi	sp,sp,-188 # 2010 <tdata_4>
  d4:	000011b7          	lui	gp,0x1
  d8:	23418193          	addi	gp,gp,564 # 1234 <_fail+0xc2c>
  dc:	fe311c23          	sh	gp,-8(sp)
  e0:	ffc00293          	li	t0,-4
  e4:	ff810113          	addi	sp,sp,-8
  e8:	00517133          	and	sp,sp,t0
  ec:	00012203          	lw	tp,0(sp)
  f0:	01200e93          	li	t4,18
  f4:	dead10b7          	lui	ra,0xdead1
  f8:	23408093          	addi	ra,ra,564 # dead1234 <__stack_top+0xdeacee04>
  fc:	50121663          	bne	tp,ra,608 <_fail>
 100:	00002117          	auipc	sp,0x2
 104:	f1010113          	addi	sp,sp,-240 # 2010 <tdata_4>
 108:	000051b7          	lui	gp,0x5
 10c:	67818193          	addi	gp,gp,1656 # 5678 <__stack_top+0x3248>
 110:	fe311d23          	sh	gp,-6(sp)
 114:	ffc00293          	li	t0,-4
 118:	ffa10113          	addi	sp,sp,-6
 11c:	00517133          	and	sp,sp,t0
 120:	00012203          	lw	tp,0(sp)
 124:	01300e93          	li	t4,19
 128:	567810b7          	lui	ra,0x56781
 12c:	23408093          	addi	ra,ra,564 # 56781234 <__stack_top+0x5677ee04>
 130:	4c121c63          	bne	tp,ra,608 <_fail>
 134:	00002117          	auipc	sp,0x2
 138:	edc10113          	addi	sp,sp,-292 # 2010 <tdata_4>
 13c:	0000a1b7          	lui	gp,0xa
 140:	abc18193          	addi	gp,gp,-1348 # 9abc <__stack_top+0x768c>
 144:	fe311e23          	sh	gp,-4(sp)
 148:	ffc00293          	li	t0,-4
 14c:	ffc10113          	addi	sp,sp,-4
 150:	00517133          	and	sp,sp,t0
 154:	00012203          	lw	tp,0(sp)
 158:	01400e93          	li	t4,20
 15c:	deada0b7          	lui	ra,0xdeada
 160:	abc08093          	addi	ra,ra,-1348 # dead9abc <__stack_top+0xdead768c>
 164:	4a121263          	bne	tp,ra,608 <_fail>
 168:	00002117          	auipc	sp,0x2
 16c:	ea810113          	addi	sp,sp,-344 # 2010 <tdata_4>
 170:	0000e1b7          	lui	gp,0xe
 174:	eff18193          	addi	gp,gp,-257 # deff <__stack_top+0xbacf>
 178:	fe311f23          	sh	gp,-2(sp)
 17c:	ffc00293          	li	t0,-4
 180:	ffe10113          	addi	sp,sp,-2
 184:	00517133          	and	sp,sp,t0
 188:	00012203          	lw	tp,0(sp)
 18c:	01500e93          	li	t4,21
 190:	deffa0b7          	lui	ra,0xdeffa
 194:	abc08093          	addi	ra,ra,-1348 # deff9abc <__stack_top+0xdeff768c>
 198:	46121863          	bne	tp,ra,608 <_fail>
 19c:	00002117          	auipc	sp,0x2
 1a0:	e7410113          	addi	sp,sp,-396 # 2010 <tdata_4>
 1a4:	00000193          	li	gp,0
 1a8:	00311023          	sh	gp,0(sp)
 1ac:	ffc00293          	li	t0,-4
 1b0:	00010113          	mv	sp,sp
 1b4:	00517133          	and	sp,sp,t0
 1b8:	00012203          	lw	tp,0(sp)
 1bc:	01600e93          	li	t4,22
 1c0:	dead00b7          	lui	ra,0xdead0
 1c4:	44121263          	bne	tp,ra,608 <_fail>
 1c8:	00002117          	auipc	sp,0x2
 1cc:	e4810113          	addi	sp,sp,-440 # 2010 <tdata_4>
 1d0:	000101b7          	lui	gp,0x10
 1d4:	f0018193          	addi	gp,gp,-256 # ff00 <__stack_top+0xdad0>
 1d8:	00311123          	sh	gp,2(sp)
 1dc:	ffc00293          	li	t0,-4
 1e0:	00210113          	addi	sp,sp,2
 1e4:	00517133          	and	sp,sp,t0
 1e8:	00012203          	lw	tp,0(sp)
 1ec:	01700e93          	li	t4,23
 1f0:	ff0000b7          	lui	ra,0xff000
 1f4:	40121a63          	bne	tp,ra,608 <_fail>
 1f8:	00002117          	auipc	sp,0x2
 1fc:	e1c10113          	addi	sp,sp,-484 # 2014 <tdata_5>
 200:	000101b7          	lui	gp,0x10
 204:	fff18193          	addi	gp,gp,-1 # ffff <__stack_top+0xdbcf>
 208:	fe010293          	addi	t0,sp,-32
 20c:	02329123          	sh	gp,34(t0)
 210:	00012203          	lw	tp,0(sp)
 214:	02000e93          	li	t4,32
 218:	ffffc0b7          	lui	ra,0xffffc
 21c:	eef08093          	addi	ra,ra,-273 # ffffbeef <__stack_top+0xffff9abf>
 220:	3e121463          	bne	tp,ra,608 <_fail>
 224:	00002117          	auipc	sp,0x2
 228:	df410113          	addi	sp,sp,-524 # 2018 <tdata_6>
 22c:	0000b1b7          	lui	gp,0xb
 230:	bcd18193          	addi	gp,gp,-1075 # abcd <__stack_top+0x879d>
 234:	ffd10113          	addi	sp,sp,-3
 238:	003114a3          	sh	gp,9(sp)
 23c:	00002297          	auipc	t0,0x2
 240:	de028293          	addi	t0,t0,-544 # 201c <tdata_7>
 244:	0002a203          	lw	tp,0(t0)
 248:	02a00e93          	li	t4,42
 24c:	abcdc0b7          	lui	ra,0xabcdc
 250:	eef08093          	addi	ra,ra,-273 # abcdbeef <__stack_top+0xabcd9abf>
 254:	3a121a63          	bne	tp,ra,608 <_fail>
 258:	0000b1b7          	lui	gp,0xb
 25c:	abb18193          	addi	gp,gp,-1349 # aabb <__stack_top+0x868b>
 260:	00002117          	auipc	sp,0x2
 264:	dc010113          	addi	sp,sp,-576 # 2020 <tdata_8>
 268:	00311023          	sh	gp,0(sp)
 26c:	ffc00293          	li	t0,-4
 270:	00010113          	mv	sp,sp
 274:	00517133          	and	sp,sp,t0
 278:	00012203          	lw	tp,0(sp)
 27c:	03000e93          	li	t4,48
 280:	deadb0b7          	lui	ra,0xdeadb
 284:	abb08093          	addi	ra,ra,-1349 # deadaabb <__stack_top+0xdead868b>
 288:	38121063          	bne	tp,ra,608 <_fail>
 28c:	0000d1b7          	lui	gp,0xd
 290:	cdd18193          	addi	gp,gp,-803 # ccdd <__stack_top+0xa8ad>
 294:	00002117          	auipc	sp,0x2
 298:	d8c10113          	addi	sp,sp,-628 # 2020 <tdata_8>
 29c:	00000013          	nop
 2a0:	00311123          	sh	gp,2(sp)
 2a4:	ffc00293          	li	t0,-4
 2a8:	00210113          	addi	sp,sp,2
 2ac:	00517133          	and	sp,sp,t0
 2b0:	00012203          	lw	tp,0(sp)
 2b4:	03100e93          	li	t4,49
 2b8:	ccddb0b7          	lui	ra,0xccddb
 2bc:	abb08093          	addi	ra,ra,-1349 # ccddaabb <__stack_top+0xccdd868b>
 2c0:	34121463          	bne	tp,ra,608 <_fail>
 2c4:	0000f1b7          	lui	gp,0xf
 2c8:	eff18193          	addi	gp,gp,-257 # eeff <__stack_top+0xcacf>
 2cc:	00002117          	auipc	sp,0x2
 2d0:	d5810113          	addi	sp,sp,-680 # 2024 <tdata_9>
 2d4:	00000013          	nop
 2d8:	00000013          	nop
 2dc:	00311023          	sh	gp,0(sp)
 2e0:	ffc00293          	li	t0,-4
 2e4:	00010113          	mv	sp,sp
 2e8:	00517133          	and	sp,sp,t0
 2ec:	00012203          	lw	tp,0(sp)
 2f0:	03200e93          	li	t4,50
 2f4:	deadf0b7          	lui	ra,0xdeadf
 2f8:	eff08093          	addi	ra,ra,-257 # deadeeff <__stack_top+0xdeadcacf>
 2fc:	30121663          	bne	tp,ra,608 <_fail>
 300:	0000b1b7          	lui	gp,0xb
 304:	abb18193          	addi	gp,gp,-1349 # aabb <__stack_top+0x868b>
 308:	00002117          	auipc	sp,0x2
 30c:	d1c10113          	addi	sp,sp,-740 # 2024 <tdata_9>
 310:	00000013          	nop
 314:	00000013          	nop
 318:	00000013          	nop
 31c:	00311123          	sh	gp,2(sp)
 320:	ffc00293          	li	t0,-4
 324:	00210113          	addi	sp,sp,2
 328:	00517133          	and	sp,sp,t0
 32c:	00012203          	lw	tp,0(sp)
 330:	03300e93          	li	t4,51
 334:	aabbf0b7          	lui	ra,0xaabbf
 338:	eff08093          	addi	ra,ra,-257 # aabbeeff <__stack_top+0xaabbcacf>
 33c:	2c121663          	bne	tp,ra,608 <_fail>
 340:	0000d1b7          	lui	gp,0xd
 344:	cdd18193          	addi	gp,gp,-803 # ccdd <__stack_top+0xa8ad>
 348:	00002117          	auipc	sp,0x2
 34c:	ce010113          	addi	sp,sp,-800 # 2028 <tdata_10>
 350:	00000013          	nop
 354:	00000013          	nop
 358:	00000013          	nop
 35c:	00000013          	nop
 360:	00311023          	sh	gp,0(sp)
 364:	ffc00293          	li	t0,-4
 368:	00010113          	mv	sp,sp
 36c:	00517133          	and	sp,sp,t0
 370:	00012203          	lw	tp,0(sp)
 374:	03400e93          	li	t4,52
 378:	deadd0b7          	lui	ra,0xdeadd
 37c:	cdd08093          	addi	ra,ra,-803 # deadccdd <__stack_top+0xdeada8ad>
 380:	28121463          	bne	tp,ra,608 <_fail>
 384:	0000f1b7          	lui	gp,0xf
 388:	eff18193          	addi	gp,gp,-257 # eeff <__stack_top+0xcacf>
 38c:	00002117          	auipc	sp,0x2
 390:	c9c10113          	addi	sp,sp,-868 # 2028 <tdata_10>
 394:	00000013          	nop
 398:	00000013          	nop
 39c:	00000013          	nop
 3a0:	00311123          	sh	gp,2(sp)
 3a4:	ffc00293          	li	t0,-4
 3a8:	00210113          	addi	sp,sp,2
 3ac:	00517133          	and	sp,sp,t0
 3b0:	00012203          	lw	tp,0(sp)
 3b4:	03500e93          	li	t4,53
 3b8:	eeffd0b7          	lui	ra,0xeeffd
 3bc:	cdd08093          	addi	ra,ra,-803 # eeffccdd <__stack_top+0xeeffa8ad>
 3c0:	24121463          	bne	tp,ra,608 <_fail>
 3c4:	000101b7          	lui	gp,0x10
 3c8:	fff18193          	addi	gp,gp,-1 # ffff <__stack_top+0xdbcf>
 3cc:	00000013          	nop
 3d0:	00002117          	auipc	sp,0x2
 3d4:	c5c10113          	addi	sp,sp,-932 # 202c <tdata_11>
 3d8:	00311023          	sh	gp,0(sp)
 3dc:	ffc00293          	li	t0,-4
 3e0:	00010113          	mv	sp,sp
 3e4:	00517133          	and	sp,sp,t0
 3e8:	00012203          	lw	tp,0(sp)
 3ec:	03700e93          	li	t4,55
 3f0:	deae00b7          	lui	ra,0xdeae0
 3f4:	fff08093          	addi	ra,ra,-1 # deadffff <__stack_top+0xdeaddbcf>
 3f8:	20121863          	bne	tp,ra,608 <_fail>
 3fc:	000101b7          	lui	gp,0x10
 400:	fff18193          	addi	gp,gp,-1 # ffff <__stack_top+0xdbcf>
 404:	00000013          	nop
 408:	00002117          	auipc	sp,0x2
 40c:	c2410113          	addi	sp,sp,-988 # 202c <tdata_11>
 410:	00000013          	nop
 414:	00311123          	sh	gp,2(sp)
 418:	ffc00293          	li	t0,-4
 41c:	00210113          	addi	sp,sp,2
 420:	00517133          	and	sp,sp,t0
 424:	00012203          	lw	tp,0(sp)
 428:	03800e93          	li	t4,56
 42c:	fff00093          	li	ra,-1
 430:	1c121c63          	bne	tp,ra,608 <_fail>
 434:	00002117          	auipc	sp,0x2
 438:	bec10113          	addi	sp,sp,-1044 # 2020 <tdata_8>
 43c:	000011b7          	lui	gp,0x1
 440:	23418193          	addi	gp,gp,564 # 1234 <_fail+0xc2c>
 444:	00311023          	sh	gp,0(sp)
 448:	ffc00293          	li	t0,-4
 44c:	00010113          	mv	sp,sp
 450:	00517133          	and	sp,sp,t0
 454:	00012203          	lw	tp,0(sp)
 458:	03a00e93          	li	t4,58
 45c:	ccdd10b7          	lui	ra,0xccdd1
 460:	23408093          	addi	ra,ra,564 # ccdd1234 <__stack_top+0xccdcee04>
 464:	1a121263          	bne	tp,ra,608 <_fail>
 468:	00002117          	auipc	sp,0x2
 46c:	bb810113          	addi	sp,sp,-1096 # 2020 <tdata_8>
 470:	000051b7          	lui	gp,0x5
 474:	67818193          	addi	gp,gp,1656 # 5678 <__stack_top+0x3248>
 478:	00000013          	nop
 47c:	00311123          	sh	gp,2(sp)
 480:	ffc00293          	li	t0,-4
 484:	00210113          	addi	sp,sp,2
 488:	00517133          	and	sp,sp,t0
 48c:	00012203          	lw	tp,0(sp)
 490:	03b00e93          	li	t4,59
 494:	567810b7          	lui	ra,0x56781
 498:	23408093          	addi	ra,ra,564 # 56781234 <__stack_top+0x5677ee04>
 49c:	16121663          	bne	tp,ra,608 <_fail>
 4a0:	00002117          	auipc	sp,0x2
 4a4:	b8410113          	addi	sp,sp,-1148 # 2024 <tdata_9>
 4a8:	0000a1b7          	lui	gp,0xa
 4ac:	abc18193          	addi	gp,gp,-1348 # 9abc <__stack_top+0x768c>
 4b0:	00000013          	nop
 4b4:	00000013          	nop
 4b8:	00311023          	sh	gp,0(sp)
 4bc:	ffc00293          	li	t0,-4
 4c0:	00010113          	mv	sp,sp
 4c4:	00517133          	and	sp,sp,t0
 4c8:	00012203          	lw	tp,0(sp)
 4cc:	03c00e93          	li	t4,60
 4d0:	aabba0b7          	lui	ra,0xaabba
 4d4:	abc08093          	addi	ra,ra,-1348 # aabb9abc <__stack_top+0xaabb768c>
 4d8:	12121863          	bne	tp,ra,608 <_fail>
 4dc:	00002117          	auipc	sp,0x2
 4e0:	b4810113          	addi	sp,sp,-1208 # 2024 <tdata_9>
 4e4:	000011b7          	lui	gp,0x1
 4e8:	23418193          	addi	gp,gp,564 # 1234 <_fail+0xc2c>
 4ec:	00000013          	nop
 4f0:	00000013          	nop
 4f4:	00000013          	nop
 4f8:	00311123          	sh	gp,2(sp)
 4fc:	ffc00293          	li	t0,-4
 500:	00210113          	addi	sp,sp,2
 504:	00517133          	and	sp,sp,t0
 508:	00012203          	lw	tp,0(sp)
 50c:	03d00e93          	li	t4,61
 510:	1234a0b7          	lui	ra,0x1234a
 514:	abc08093          	addi	ra,ra,-1348 # 12349abc <__stack_top+0x1234768c>
 518:	0e121863          	bne	tp,ra,608 <_fail>
 51c:	00002117          	auipc	sp,0x2
 520:	b0c10113          	addi	sp,sp,-1268 # 2028 <tdata_10>
 524:	000051b7          	lui	gp,0x5
 528:	67818193          	addi	gp,gp,1656 # 5678 <__stack_top+0x3248>
 52c:	00000013          	nop
 530:	00000013          	nop
 534:	00000013          	nop
 538:	00000013          	nop
 53c:	00311023          	sh	gp,0(sp)
 540:	ffc00293          	li	t0,-4
 544:	00010113          	mv	sp,sp
 548:	00517133          	and	sp,sp,t0
 54c:	00012203          	lw	tp,0(sp)
 550:	03e00e93          	li	t4,62
 554:	eeff50b7          	lui	ra,0xeeff5
 558:	67808093          	addi	ra,ra,1656 # eeff5678 <__stack_top+0xeeff3248>
 55c:	0a121663          	bne	tp,ra,608 <_fail>
 560:	00002117          	auipc	sp,0x2
 564:	ac810113          	addi	sp,sp,-1336 # 2028 <tdata_10>
 568:	0000a1b7          	lui	gp,0xa
 56c:	abc18193          	addi	gp,gp,-1348 # 9abc <__stack_top+0x768c>
 570:	00000013          	nop
 574:	00000013          	nop
 578:	00000013          	nop
 57c:	00311123          	sh	gp,2(sp)
 580:	ffc00293          	li	t0,-4
 584:	00210113          	addi	sp,sp,2
 588:	00517133          	and	sp,sp,t0
 58c:	00012203          	lw	tp,0(sp)
 590:	03f00e93          	li	t4,63
 594:	9abc50b7          	lui	ra,0x9abc5
 598:	67808093          	addi	ra,ra,1656 # 9abc5678 <__stack_top+0x9abc3248>
 59c:	06121663          	bne	tp,ra,608 <_fail>
 5a0:	00002117          	auipc	sp,0x2
 5a4:	a8c10113          	addi	sp,sp,-1396 # 202c <tdata_11>
 5a8:	00000013          	nop
 5ac:	00000193          	li	gp,0
 5b0:	00311023          	sh	gp,0(sp)
 5b4:	ffc00293          	li	t0,-4
 5b8:	00010113          	mv	sp,sp
 5bc:	00517133          	and	sp,sp,t0
 5c0:	00012203          	lw	tp,0(sp)
 5c4:	04100e93          	li	t4,65
 5c8:	ffff00b7          	lui	ra,0xffff0
 5cc:	02121e63          	bne	tp,ra,608 <_fail>
 5d0:	00002117          	auipc	sp,0x2
 5d4:	a5c10113          	addi	sp,sp,-1444 # 202c <tdata_11>
 5d8:	00000013          	nop
 5dc:	00000193          	li	gp,0
 5e0:	00000013          	nop
 5e4:	00311123          	sh	gp,2(sp)
 5e8:	ffc00293          	li	t0,-4
 5ec:	00210113          	addi	sp,sp,2
 5f0:	00517133          	and	sp,sp,t0
 5f4:	00012203          	lw	tp,0(sp)
 5f8:	04200e93          	li	t4,66
 5fc:	00000093          	li	ra,0
 600:	00121463          	bne	tp,ra,608 <_fail>

00000604 <_pass>:
 604:	00100e93          	li	t4,1

00000608 <_fail>:
 608:	00100113          	li	sp,1
 60c:	015e9073          	csrw	seed,t4
 610:	00201063          	bne	zero,sp,610 <_fail+0x8>
 614:	00000013          	nop
 618:	00000013          	nop
 61c:	00000013          	nop
 620:	00000013          	nop
 624:	00000013          	nop
 628:	00000013          	nop
 62c:	00000013          	nop
 630:	00000013          	nop
 634:	00000013          	nop
 638:	00000013          	nop
	...
