
bin/riscv-bgeu.elf:     file format elf32-littleriscv


Disassembly of section .text:

00000000 <_start>:
   0:	00000113          	li	sp,0
   4:	00000193          	li	gp,0
   8:	00317a63          	bgeu	sp,gp,1c <_start+0x1c>
   c:	00d00e93          	li	t4,13
  10:	2a0e9a63          	bnez	t4,2c4 <_fail>
  14:	00100213          	li	tp,1
  18:	00401863          	bne	zero,tp,28 <_start+0x28>
  1c:	fe317ce3          	bgeu	sp,gp,14 <_start+0x14>
  20:	00d00e93          	li	t4,13
  24:	2a0e9063          	bnez	t4,2c4 <_fail>
  28:	fff00113          	li	sp,-1
  2c:	00000193          	li	gp,0
  30:	00317a63          	bgeu	sp,gp,44 <_start+0x44>
  34:	00e00e93          	li	t4,14
  38:	280e9663          	bnez	t4,2c4 <_fail>
  3c:	00100213          	li	tp,1
  40:	00401863          	bne	zero,tp,50 <_start+0x50>
  44:	fe317ce3          	bgeu	sp,gp,3c <_start+0x3c>
  48:	00e00e93          	li	t4,14
  4c:	260e9c63          	bnez	t4,2c4 <_fail>
  50:	00100113          	li	sp,1
  54:	00000193          	li	gp,0
  58:	00317a63          	bgeu	sp,gp,6c <_start+0x6c>
  5c:	00f00e93          	li	t4,15
  60:	260e9263          	bnez	t4,2c4 <_fail>
  64:	00100213          	li	tp,1
  68:	00401863          	bne	zero,tp,78 <_start+0x78>
  6c:	fe317ce3          	bgeu	sp,gp,64 <_start+0x64>
  70:	00f00e93          	li	t4,15
  74:	240e9863          	bnez	t4,2c4 <_fail>
  78:	fff00113          	li	sp,-1
  7c:	00100193          	li	gp,1
  80:	00317a63          	bgeu	sp,gp,94 <_start+0x94>
  84:	01000e93          	li	t4,16
  88:	220e9e63          	bnez	t4,2c4 <_fail>
  8c:	00100213          	li	tp,1
  90:	00401863          	bne	zero,tp,a0 <_start+0xa0>
  94:	fe317ce3          	bgeu	sp,gp,8c <_start+0x8c>
  98:	01000e93          	li	t4,16
  9c:	220e9463          	bnez	t4,2c4 <_fail>
  a0:	00000113          	li	sp,0
  a4:	00100193          	li	gp,1
  a8:	00317663          	bgeu	sp,gp,b4 <_start+0xb4>
  ac:	00100213          	li	tp,1
  b0:	00401663          	bne	zero,tp,bc <_start+0xbc>
  b4:	01200e93          	li	t4,18
  b8:	200e9663          	bnez	t4,2c4 <_fail>
  bc:	fe317ce3          	bgeu	sp,gp,b4 <_start+0xb4>
  c0:	00000113          	li	sp,0
  c4:	fff00193          	li	gp,-1
  c8:	00317663          	bgeu	sp,gp,d4 <_start+0xd4>
  cc:	00100213          	li	tp,1
  d0:	00401663          	bne	zero,tp,dc <_start+0xdc>
  d4:	01300e93          	li	t4,19
  d8:	1e0e9663          	bnez	t4,2c4 <_fail>
  dc:	fe317ce3          	bgeu	sp,gp,d4 <_start+0xd4>
  e0:	00100113          	li	sp,1
  e4:	fff00193          	li	gp,-1
  e8:	00317663          	bgeu	sp,gp,f4 <_start+0xf4>
  ec:	00100213          	li	tp,1
  f0:	00401663          	bne	zero,tp,fc <_start+0xfc>
  f4:	01400e93          	li	t4,20
  f8:	1c0e9663          	bnez	t4,2c4 <_fail>
  fc:	fe317ce3          	bgeu	sp,gp,f4 <_start+0xf4>
 100:	00000113          	li	sp,0
 104:	00100193          	li	gp,1
 108:	00317663          	bgeu	sp,gp,114 <_start+0x114>
 10c:	00100213          	li	tp,1
 110:	00401663          	bne	zero,tp,11c <_start+0x11c>
 114:	01a00e93          	li	t4,26
 118:	1a0e9663          	bnez	t4,2c4 <_fail>
 11c:	00000113          	li	sp,0
 120:	00100193          	li	gp,1
 124:	00000013          	nop
 128:	00317663          	bgeu	sp,gp,134 <_start+0x134>
 12c:	00100213          	li	tp,1
 130:	00401663          	bne	zero,tp,13c <_start+0x13c>
 134:	01b00e93          	li	t4,27
 138:	180e9663          	bnez	t4,2c4 <_fail>
 13c:	00000113          	li	sp,0
 140:	00100193          	li	gp,1
 144:	00000013          	nop
 148:	00000013          	nop
 14c:	00317663          	bgeu	sp,gp,158 <_start+0x158>
 150:	00100213          	li	tp,1
 154:	00401663          	bne	zero,tp,160 <_start+0x160>
 158:	01c00e93          	li	t4,28
 15c:	160e9463          	bnez	t4,2c4 <_fail>
 160:	00000113          	li	sp,0
 164:	00000013          	nop
 168:	00100193          	li	gp,1
 16c:	00317663          	bgeu	sp,gp,178 <_start+0x178>
 170:	00100213          	li	tp,1
 174:	00401663          	bne	zero,tp,180 <_start+0x180>
 178:	01d00e93          	li	t4,29
 17c:	140e9463          	bnez	t4,2c4 <_fail>
 180:	00000113          	li	sp,0
 184:	00000013          	nop
 188:	00100193          	li	gp,1
 18c:	00000013          	nop
 190:	00317663          	bgeu	sp,gp,19c <_start+0x19c>
 194:	00100213          	li	tp,1
 198:	00401663          	bne	zero,tp,1a4 <_start+0x1a4>
 19c:	01e00e93          	li	t4,30
 1a0:	120e9263          	bnez	t4,2c4 <_fail>
 1a4:	00000113          	li	sp,0
 1a8:	00000013          	nop
 1ac:	00000013          	nop
 1b0:	00100193          	li	gp,1
 1b4:	00317663          	bgeu	sp,gp,1c0 <_start+0x1c0>
 1b8:	00100213          	li	tp,1
 1bc:	00401663          	bne	zero,tp,1c8 <_start+0x1c8>
 1c0:	01f00e93          	li	t4,31
 1c4:	100e9063          	bnez	t4,2c4 <_fail>
 1c8:	00100193          	li	gp,1
 1cc:	00000113          	li	sp,0
 1d0:	00317663          	bgeu	sp,gp,1dc <_start+0x1dc>
 1d4:	00100213          	li	tp,1
 1d8:	00401663          	bne	zero,tp,1e4 <_start+0x1e4>
 1dc:	02100e93          	li	t4,33
 1e0:	0e0e9263          	bnez	t4,2c4 <_fail>
 1e4:	00100193          	li	gp,1
 1e8:	00000113          	li	sp,0
 1ec:	00000013          	nop
 1f0:	00317663          	bgeu	sp,gp,1fc <_start+0x1fc>
 1f4:	00100213          	li	tp,1
 1f8:	00401663          	bne	zero,tp,204 <_start+0x204>
 1fc:	02200e93          	li	t4,34
 200:	0c0e9263          	bnez	t4,2c4 <_fail>
 204:	00100193          	li	gp,1
 208:	00000113          	li	sp,0
 20c:	00000013          	nop
 210:	00000013          	nop
 214:	00317663          	bgeu	sp,gp,220 <_start+0x220>
 218:	00100213          	li	tp,1
 21c:	00401663          	bne	zero,tp,228 <_start+0x228>
 220:	02300e93          	li	t4,35
 224:	0a0e9063          	bnez	t4,2c4 <_fail>
 228:	00100193          	li	gp,1
 22c:	00000013          	nop
 230:	00000113          	li	sp,0
 234:	00317663          	bgeu	sp,gp,240 <_start+0x240>
 238:	00100213          	li	tp,1
 23c:	00401663          	bne	zero,tp,248 <_start+0x248>
 240:	02400e93          	li	t4,36
 244:	080e9063          	bnez	t4,2c4 <_fail>
 248:	00100193          	li	gp,1
 24c:	00000013          	nop
 250:	00000113          	li	sp,0
 254:	00000013          	nop
 258:	00317663          	bgeu	sp,gp,264 <_start+0x264>
 25c:	00100213          	li	tp,1
 260:	00401663          	bne	zero,tp,26c <_start+0x26c>
 264:	02500e93          	li	t4,37
 268:	040e9e63          	bnez	t4,2c4 <_fail>
 26c:	00100193          	li	gp,1
 270:	00000013          	nop
 274:	00000013          	nop
 278:	00000113          	li	sp,0
 27c:	00317663          	bgeu	sp,gp,288 <_start+0x288>
 280:	00100213          	li	tp,1
 284:	00401663          	bne	zero,tp,290 <_start+0x290>
 288:	02600e93          	li	t4,38
 28c:	020e9c63          	bnez	t4,2c4 <_fail>
 290:	00100113          	li	sp,1
 294:	00000193          	li	gp,0
 298:	00317a63          	bgeu	sp,gp,2ac <_start+0x2ac>
 29c:	00110113          	addi	sp,sp,1
 2a0:	00110113          	addi	sp,sp,1
 2a4:	00110113          	addi	sp,sp,1
 2a8:	00110113          	addi	sp,sp,1
 2ac:	00110113          	addi	sp,sp,1
 2b0:	00110113          	addi	sp,sp,1
 2b4:	03500e93          	li	t4,53
 2b8:	00300093          	li	ra,3
 2bc:	00111463          	bne	sp,ra,2c4 <_fail>

000002c0 <_pass>:
 2c0:	00100e93          	li	t4,1

000002c4 <_fail>:
 2c4:	00100113          	li	sp,1
 2c8:	015e9073          	csrw	seed,t4
 2cc:	00201063          	bne	zero,sp,2cc <_fail+0x8>
 2d0:	00000013          	nop
 2d4:	00000013          	nop
 2d8:	00000013          	nop
 2dc:	00000013          	nop
 2e0:	00000013          	nop
 2e4:	00000013          	nop
 2e8:	00000013          	nop
 2ec:	00000013          	nop
 2f0:	00000013          	nop
 2f4:	00000013          	nop
	...
