
bin/riscv-sltu.elf:     file format elf32-littleriscv


Disassembly of section .text:

00000000 <_start>:
   0:	00000113          	li	sp,0
   4:	00000193          	li	gp,0
   8:	00313233          	sltu	tp,sp,gp
   c:	00d00e93          	li	t4,13
  10:	00000093          	li	ra,0
  14:	36121a63          	bne	tp,ra,388 <_fail>
  18:	00100113          	li	sp,1
  1c:	00100193          	li	gp,1
  20:	00313233          	sltu	tp,sp,gp
  24:	00e00e93          	li	t4,14
  28:	00000093          	li	ra,0
  2c:	34121e63          	bne	tp,ra,388 <_fail>
  30:	00300113          	li	sp,3
  34:	00700193          	li	gp,7
  38:	00313233          	sltu	tp,sp,gp
  3c:	00f00e93          	li	t4,15
  40:	00100093          	li	ra,1
  44:	34121263          	bne	tp,ra,388 <_fail>
  48:	00700113          	li	sp,7
  4c:	00300193          	li	gp,3
  50:	00313233          	sltu	tp,sp,gp
  54:	01000e93          	li	t4,16
  58:	00000093          	li	ra,0
  5c:	32121663          	bne	tp,ra,388 <_fail>
  60:	00000113          	li	sp,0
  64:	ffff81b7          	lui	gp,0xffff8
  68:	00313233          	sltu	tp,sp,gp
  6c:	01200e93          	li	t4,18
  70:	00100093          	li	ra,1
  74:	30121a63          	bne	tp,ra,388 <_fail>
  78:	80000137          	lui	sp,0x80000
  7c:	00000193          	li	gp,0
  80:	00313233          	sltu	tp,sp,gp
  84:	01300e93          	li	t4,19
  88:	00000093          	li	ra,0
  8c:	2e121e63          	bne	tp,ra,388 <_fail>
  90:	80000137          	lui	sp,0x80000
  94:	ffff81b7          	lui	gp,0xffff8
  98:	00313233          	sltu	tp,sp,gp
  9c:	01400e93          	li	t4,20
  a0:	00100093          	li	ra,1
  a4:	2e121263          	bne	tp,ra,388 <_fail>
  a8:	00000113          	li	sp,0
  ac:	000081b7          	lui	gp,0x8
  b0:	fff18193          	addi	gp,gp,-1 # 7fff <__stack_top+0x5bff>
  b4:	00313233          	sltu	tp,sp,gp
  b8:	01600e93          	li	t4,22
  bc:	00100093          	li	ra,1
  c0:	2c121463          	bne	tp,ra,388 <_fail>
  c4:	80000137          	lui	sp,0x80000
  c8:	fff10113          	addi	sp,sp,-1 # 7fffffff <__stack_top+0x7fffdbff>
  cc:	00000193          	li	gp,0
  d0:	00313233          	sltu	tp,sp,gp
  d4:	01700e93          	li	t4,23
  d8:	00000093          	li	ra,0
  dc:	2a121663          	bne	tp,ra,388 <_fail>
  e0:	80000137          	lui	sp,0x80000
  e4:	fff10113          	addi	sp,sp,-1 # 7fffffff <__stack_top+0x7fffdbff>
  e8:	000081b7          	lui	gp,0x8
  ec:	fff18193          	addi	gp,gp,-1 # 7fff <__stack_top+0x5bff>
  f0:	00313233          	sltu	tp,sp,gp
  f4:	01800e93          	li	t4,24
  f8:	00000093          	li	ra,0
  fc:	28121663          	bne	tp,ra,388 <_fail>
 100:	80000137          	lui	sp,0x80000
 104:	000081b7          	lui	gp,0x8
 108:	fff18193          	addi	gp,gp,-1 # 7fff <__stack_top+0x5bff>
 10c:	00313233          	sltu	tp,sp,gp
 110:	01a00e93          	li	t4,26
 114:	00000093          	li	ra,0
 118:	26121863          	bne	tp,ra,388 <_fail>
 11c:	80000137          	lui	sp,0x80000
 120:	fff10113          	addi	sp,sp,-1 # 7fffffff <__stack_top+0x7fffdbff>
 124:	ffff81b7          	lui	gp,0xffff8
 128:	00313233          	sltu	tp,sp,gp
 12c:	01b00e93          	li	t4,27
 130:	00100093          	li	ra,1
 134:	24121a63          	bne	tp,ra,388 <_fail>
 138:	00000113          	li	sp,0
 13c:	fff00193          	li	gp,-1
 140:	00313233          	sltu	tp,sp,gp
 144:	01d00e93          	li	t4,29
 148:	00100093          	li	ra,1
 14c:	22121e63          	bne	tp,ra,388 <_fail>
 150:	fff00113          	li	sp,-1
 154:	00100193          	li	gp,1
 158:	00313233          	sltu	tp,sp,gp
 15c:	01e00e93          	li	t4,30
 160:	00000093          	li	ra,0
 164:	22121263          	bne	tp,ra,388 <_fail>
 168:	fff00113          	li	sp,-1
 16c:	fff00193          	li	gp,-1
 170:	00313233          	sltu	tp,sp,gp
 174:	01f00e93          	li	t4,31
 178:	00000093          	li	ra,0
 17c:	20121663          	bne	tp,ra,388 <_fail>
 180:	00e00113          	li	sp,14
 184:	00d00193          	li	gp,13
 188:	00313133          	sltu	sp,sp,gp
 18c:	02500e93          	li	t4,37
 190:	00000093          	li	ra,0
 194:	1e111a63          	bne	sp,ra,388 <_fail>
 198:	00b00113          	li	sp,11
 19c:	00d00193          	li	gp,13
 1a0:	003131b3          	sltu	gp,sp,gp
 1a4:	02600e93          	li	t4,38
 1a8:	00100093          	li	ra,1
 1ac:	1c119e63          	bne	gp,ra,388 <_fail>
 1b0:	00d00113          	li	sp,13
 1b4:	00213133          	sltu	sp,sp,sp
 1b8:	02700e93          	li	t4,39
 1bc:	00000093          	li	ra,0
 1c0:	1c111463          	bne	sp,ra,388 <_fail>
 1c4:	00b00113          	li	sp,11
 1c8:	00d00193          	li	gp,13
 1cc:	00313233          	sltu	tp,sp,gp
 1d0:	00020393          	mv	t2,tp
 1d4:	02d00e93          	li	t4,45
 1d8:	00100093          	li	ra,1
 1dc:	1a139663          	bne	t2,ra,388 <_fail>
 1e0:	00e00113          	li	sp,14
 1e4:	00d00193          	li	gp,13
 1e8:	00313233          	sltu	tp,sp,gp
 1ec:	00000013          	nop
 1f0:	00020393          	mv	t2,tp
 1f4:	02e00e93          	li	t4,46
 1f8:	00000093          	li	ra,0
 1fc:	18139663          	bne	t2,ra,388 <_fail>
 200:	00c00113          	li	sp,12
 204:	00d00193          	li	gp,13
 208:	00313233          	sltu	tp,sp,gp
 20c:	00000013          	nop
 210:	00000013          	nop
 214:	00020393          	mv	t2,tp
 218:	02f00e93          	li	t4,47
 21c:	00100093          	li	ra,1
 220:	16139463          	bne	t2,ra,388 <_fail>
 224:	00e00113          	li	sp,14
 228:	00d00193          	li	gp,13
 22c:	00313233          	sltu	tp,sp,gp
 230:	03100e93          	li	t4,49
 234:	00000093          	li	ra,0
 238:	14121863          	bne	tp,ra,388 <_fail>
 23c:	00b00113          	li	sp,11
 240:	00d00193          	li	gp,13
 244:	00000013          	nop
 248:	00313233          	sltu	tp,sp,gp
 24c:	03200e93          	li	t4,50
 250:	00100093          	li	ra,1
 254:	12121a63          	bne	tp,ra,388 <_fail>
 258:	00f00113          	li	sp,15
 25c:	00d00193          	li	gp,13
 260:	00000013          	nop
 264:	00000013          	nop
 268:	00313233          	sltu	tp,sp,gp
 26c:	03300e93          	li	t4,51
 270:	00000093          	li	ra,0
 274:	10121a63          	bne	tp,ra,388 <_fail>
 278:	00a00113          	li	sp,10
 27c:	00000013          	nop
 280:	00d00193          	li	gp,13
 284:	00313233          	sltu	tp,sp,gp
 288:	03400e93          	li	t4,52
 28c:	00100093          	li	ra,1
 290:	0e121c63          	bne	tp,ra,388 <_fail>
 294:	01000113          	li	sp,16
 298:	00000013          	nop
 29c:	00d00193          	li	gp,13
 2a0:	00000013          	nop
 2a4:	00313233          	sltu	tp,sp,gp
 2a8:	03500e93          	li	t4,53
 2ac:	00000093          	li	ra,0
 2b0:	0c121c63          	bne	tp,ra,388 <_fail>
 2b4:	00900113          	li	sp,9
 2b8:	00000013          	nop
 2bc:	00000013          	nop
 2c0:	00d00193          	li	gp,13
 2c4:	00313233          	sltu	tp,sp,gp
 2c8:	03600e93          	li	t4,54
 2cc:	00100093          	li	ra,1
 2d0:	0a121c63          	bne	tp,ra,388 <_fail>
 2d4:	00d00193          	li	gp,13
 2d8:	01100113          	li	sp,17
 2dc:	00313233          	sltu	tp,sp,gp
 2e0:	03800e93          	li	t4,56
 2e4:	00000093          	li	ra,0
 2e8:	0a121063          	bne	tp,ra,388 <_fail>
 2ec:	00d00193          	li	gp,13
 2f0:	00800113          	li	sp,8
 2f4:	00000013          	nop
 2f8:	00313233          	sltu	tp,sp,gp
 2fc:	03900e93          	li	t4,57
 300:	00100093          	li	ra,1
 304:	08121263          	bne	tp,ra,388 <_fail>
 308:	00d00193          	li	gp,13
 30c:	01200113          	li	sp,18
 310:	00000013          	nop
 314:	00000013          	nop
 318:	00313233          	sltu	tp,sp,gp
 31c:	03a00e93          	li	t4,58
 320:	00000093          	li	ra,0
 324:	06121263          	bne	tp,ra,388 <_fail>
 328:	00d00193          	li	gp,13
 32c:	00000013          	nop
 330:	00700113          	li	sp,7
 334:	00313233          	sltu	tp,sp,gp
 338:	03b00e93          	li	t4,59
 33c:	00100093          	li	ra,1
 340:	04121463          	bne	tp,ra,388 <_fail>
 344:	00d00193          	li	gp,13
 348:	00000013          	nop
 34c:	01300113          	li	sp,19
 350:	00000013          	nop
 354:	00313233          	sltu	tp,sp,gp
 358:	03c00e93          	li	t4,60
 35c:	00000093          	li	ra,0
 360:	02121463          	bne	tp,ra,388 <_fail>
 364:	00d00193          	li	gp,13
 368:	00000013          	nop
 36c:	00000013          	nop
 370:	00600113          	li	sp,6
 374:	00313233          	sltu	tp,sp,gp
 378:	03d00e93          	li	t4,61
 37c:	00100093          	li	ra,1
 380:	00121463          	bne	tp,ra,388 <_fail>

00000384 <_pass>:
 384:	00100e93          	li	t4,1

00000388 <_fail>:
 388:	00100113          	li	sp,1
 38c:	015e9073          	csrw	seed,t4
 390:	00201063          	bne	zero,sp,390 <_fail+0x8>
 394:	00000013          	nop
 398:	00000013          	nop
 39c:	00000013          	nop
 3a0:	00000013          	nop
 3a4:	00000013          	nop
 3a8:	00000013          	nop
 3ac:	00000013          	nop
 3b0:	00000013          	nop
 3b4:	00000013          	nop
 3b8:	00000013          	nop
	...
