
bin/riscv-slti.elf:     file format elf32-littleriscv


Disassembly of section .text:

00000000 <_start>:
   0:	00000113          	li	sp,0
   4:	00012213          	slti	tp,sp,0
   8:	00d00e93          	li	t4,13
   c:	00000093          	li	ra,0
  10:	1c121e63          	bne	tp,ra,1ec <_fail>
  14:	00100113          	li	sp,1
  18:	00112213          	slti	tp,sp,1
  1c:	00e00e93          	li	t4,14
  20:	00000093          	li	ra,0
  24:	1c121463          	bne	tp,ra,1ec <_fail>
  28:	00300113          	li	sp,3
  2c:	00712213          	slti	tp,sp,7
  30:	00f00e93          	li	t4,15
  34:	00100093          	li	ra,1
  38:	1a121a63          	bne	tp,ra,1ec <_fail>
  3c:	00700113          	li	sp,7
  40:	00312213          	slti	tp,sp,3
  44:	01000e93          	li	t4,16
  48:	00000093          	li	ra,0
  4c:	1a121063          	bne	tp,ra,1ec <_fail>
  50:	00000113          	li	sp,0
  54:	80012213          	slti	tp,sp,-2048
  58:	01200e93          	li	t4,18
  5c:	00000093          	li	ra,0
  60:	18121663          	bne	tp,ra,1ec <_fail>
  64:	80000137          	lui	sp,0x80000
  68:	00012213          	slti	tp,sp,0
  6c:	01300e93          	li	t4,19
  70:	00100093          	li	ra,1
  74:	16121c63          	bne	tp,ra,1ec <_fail>
  78:	80000137          	lui	sp,0x80000
  7c:	80012213          	slti	tp,sp,-2048
  80:	01400e93          	li	t4,20
  84:	00100093          	li	ra,1
  88:	16121263          	bne	tp,ra,1ec <_fail>
  8c:	00000113          	li	sp,0
  90:	7ff12213          	slti	tp,sp,2047
  94:	01600e93          	li	t4,22
  98:	00100093          	li	ra,1
  9c:	14121863          	bne	tp,ra,1ec <_fail>
  a0:	80000137          	lui	sp,0x80000
  a4:	fff10113          	addi	sp,sp,-1 # 7fffffff <__stack_top+0x7fffdbff>
  a8:	00012213          	slti	tp,sp,0
  ac:	01700e93          	li	t4,23
  b0:	00000093          	li	ra,0
  b4:	12121c63          	bne	tp,ra,1ec <_fail>
  b8:	80000137          	lui	sp,0x80000
  bc:	fff10113          	addi	sp,sp,-1 # 7fffffff <__stack_top+0x7fffdbff>
  c0:	7ff12213          	slti	tp,sp,2047
  c4:	01800e93          	li	t4,24
  c8:	00000093          	li	ra,0
  cc:	12121063          	bne	tp,ra,1ec <_fail>
  d0:	80000137          	lui	sp,0x80000
  d4:	7ff12213          	slti	tp,sp,2047
  d8:	01a00e93          	li	t4,26
  dc:	00100093          	li	ra,1
  e0:	10121663          	bne	tp,ra,1ec <_fail>
  e4:	80000137          	lui	sp,0x80000
  e8:	fff10113          	addi	sp,sp,-1 # 7fffffff <__stack_top+0x7fffdbff>
  ec:	80012213          	slti	tp,sp,-2048
  f0:	01b00e93          	li	t4,27
  f4:	00000093          	li	ra,0
  f8:	0e121a63          	bne	tp,ra,1ec <_fail>
  fc:	00000113          	li	sp,0
 100:	fff12213          	slti	tp,sp,-1
 104:	01d00e93          	li	t4,29
 108:	00000093          	li	ra,0
 10c:	0e121063          	bne	tp,ra,1ec <_fail>
 110:	fff00113          	li	sp,-1
 114:	00112213          	slti	tp,sp,1
 118:	01e00e93          	li	t4,30
 11c:	00100093          	li	ra,1
 120:	0c121663          	bne	tp,ra,1ec <_fail>
 124:	fff00113          	li	sp,-1
 128:	fff12213          	slti	tp,sp,-1
 12c:	01f00e93          	li	t4,31
 130:	00000093          	li	ra,0
 134:	0a121c63          	bne	tp,ra,1ec <_fail>
 138:	00b00113          	li	sp,11
 13c:	00d12113          	slti	sp,sp,13
 140:	02500e93          	li	t4,37
 144:	00100093          	li	ra,1
 148:	0a111263          	bne	sp,ra,1ec <_fail>
 14c:	00f00113          	li	sp,15
 150:	00a12213          	slti	tp,sp,10
 154:	00020393          	mv	t2,tp
 158:	02b00e93          	li	t4,43
 15c:	00000093          	li	ra,0
 160:	08139663          	bne	t2,ra,1ec <_fail>
 164:	00a00113          	li	sp,10
 168:	01012213          	slti	tp,sp,16
 16c:	00000013          	nop
 170:	00020393          	mv	t2,tp
 174:	02c00e93          	li	t4,44
 178:	00100093          	li	ra,1
 17c:	06139863          	bne	t2,ra,1ec <_fail>
 180:	01000113          	li	sp,16
 184:	00912213          	slti	tp,sp,9
 188:	00000013          	nop
 18c:	00000013          	nop
 190:	00020393          	mv	t2,tp
 194:	02d00e93          	li	t4,45
 198:	00000093          	li	ra,0
 19c:	04139863          	bne	t2,ra,1ec <_fail>
 1a0:	00b00113          	li	sp,11
 1a4:	00f12213          	slti	tp,sp,15
 1a8:	02f00e93          	li	t4,47
 1ac:	00100093          	li	ra,1
 1b0:	02121e63          	bne	tp,ra,1ec <_fail>
 1b4:	01100113          	li	sp,17
 1b8:	00000013          	nop
 1bc:	00812213          	slti	tp,sp,8
 1c0:	03000e93          	li	t4,48
 1c4:	00000093          	li	ra,0
 1c8:	02121263          	bne	tp,ra,1ec <_fail>
 1cc:	00c00113          	li	sp,12
 1d0:	00000013          	nop
 1d4:	00000013          	nop
 1d8:	00e12213          	slti	tp,sp,14
 1dc:	03100e93          	li	t4,49
 1e0:	00100093          	li	ra,1
 1e4:	00121463          	bne	tp,ra,1ec <_fail>

000001e8 <_pass>:
 1e8:	00100e93          	li	t4,1

000001ec <_fail>:
 1ec:	00100113          	li	sp,1
 1f0:	015e9073          	csrw	seed,t4
 1f4:	00201063          	bne	zero,sp,1f4 <_fail+0x8>
 1f8:	00000013          	nop
 1fc:	00000013          	nop
 200:	00000013          	nop
 204:	00000013          	nop
 208:	00000013          	nop
 20c:	00000013          	nop
 210:	00000013          	nop
 214:	00000013          	nop
 218:	00000013          	nop
 21c:	00000013          	nop
 220:	0000                	.insn	2, 0x
	...
