
bin/riscv-lh.elf:     file format elf32-littleriscv


Disassembly of section .text:

00000000 <_start>:
   0:	00002117          	auipc	sp,0x2
   4:	00010113          	mv	sp,sp
   8:	00011203          	lh	tp,0(sp) # 2000 <tdata_0>
   c:	00d00e93          	li	t4,13
  10:	ffffc0b7          	lui	ra,0xffffc
  14:	eef08093          	addi	ra,ra,-273 # ffffbeef <__stack_top+0xffff9adf>
  18:	2c121663          	bne	tp,ra,2e4 <_fail>
  1c:	00002117          	auipc	sp,0x2
  20:	fe410113          	addi	sp,sp,-28 # 2000 <tdata_0>
  24:	00211203          	lh	tp,2(sp)
  28:	00e00e93          	li	t4,14
  2c:	ffffe0b7          	lui	ra,0xffffe
  30:	ead08093          	addi	ra,ra,-339 # ffffdead <__stack_top+0xffffba9d>
  34:	2a121863          	bne	tp,ra,2e4 <_fail>
  38:	00002117          	auipc	sp,0x2
  3c:	fc810113          	addi	sp,sp,-56 # 2000 <tdata_0>
  40:	00411203          	lh	tp,4(sp)
  44:	00f00e93          	li	t4,15
  48:	0ff00093          	li	ra,255
  4c:	28121c63          	bne	tp,ra,2e4 <_fail>
  50:	00002117          	auipc	sp,0x2
  54:	fb010113          	addi	sp,sp,-80 # 2000 <tdata_0>
  58:	00611203          	lh	tp,6(sp)
  5c:	01000e93          	li	t4,16
  60:	f0000093          	li	ra,-256
  64:	28121063          	bne	tp,ra,2e4 <_fail>
  68:	00002117          	auipc	sp,0x2
  6c:	fa010113          	addi	sp,sp,-96 # 2008 <tdata_2>
  70:	ff811203          	lh	tp,-8(sp)
  74:	01200e93          	li	t4,18
  78:	ffffc0b7          	lui	ra,0xffffc
  7c:	eef08093          	addi	ra,ra,-273 # ffffbeef <__stack_top+0xffff9adf>
  80:	26121263          	bne	tp,ra,2e4 <_fail>
  84:	00002117          	auipc	sp,0x2
  88:	f8410113          	addi	sp,sp,-124 # 2008 <tdata_2>
  8c:	ffa11203          	lh	tp,-6(sp)
  90:	01300e93          	li	t4,19
  94:	ffffe0b7          	lui	ra,0xffffe
  98:	ead08093          	addi	ra,ra,-339 # ffffdead <__stack_top+0xffffba9d>
  9c:	24121463          	bne	tp,ra,2e4 <_fail>
  a0:	00002117          	auipc	sp,0x2
  a4:	f6810113          	addi	sp,sp,-152 # 2008 <tdata_2>
  a8:	ffc11203          	lh	tp,-4(sp)
  ac:	01400e93          	li	t4,20
  b0:	0ff00093          	li	ra,255
  b4:	22121863          	bne	tp,ra,2e4 <_fail>
  b8:	00002117          	auipc	sp,0x2
  bc:	f5010113          	addi	sp,sp,-176 # 2008 <tdata_2>
  c0:	ffe11203          	lh	tp,-2(sp)
  c4:	01500e93          	li	t4,21
  c8:	f0000093          	li	ra,-256
  cc:	20121c63          	bne	tp,ra,2e4 <_fail>
  d0:	00002117          	auipc	sp,0x2
  d4:	f3810113          	addi	sp,sp,-200 # 2008 <tdata_2>
  d8:	00011203          	lh	tp,0(sp)
  dc:	01600e93          	li	t4,22
  e0:	f0000093          	li	ra,-256
  e4:	20121063          	bne	tp,ra,2e4 <_fail>
  e8:	00002117          	auipc	sp,0x2
  ec:	f2010113          	addi	sp,sp,-224 # 2008 <tdata_2>
  f0:	00211203          	lh	tp,2(sp)
  f4:	01700e93          	li	t4,23
  f8:	0ff00093          	li	ra,255
  fc:	1e121463          	bne	tp,ra,2e4 <_fail>
 100:	00002117          	auipc	sp,0x2
 104:	f0010113          	addi	sp,sp,-256 # 2000 <tdata_0>
 108:	fe010113          	addi	sp,sp,-32
 10c:	02211203          	lh	tp,34(sp)
 110:	01e00e93          	li	t4,30
 114:	ffffe0b7          	lui	ra,0xffffe
 118:	ead08093          	addi	ra,ra,-339 # ffffdead <__stack_top+0xffffba9d>
 11c:	1c121463          	bne	tp,ra,2e4 <_fail>
 120:	00002117          	auipc	sp,0x2
 124:	ee010113          	addi	sp,sp,-288 # 2000 <tdata_0>
 128:	ffd10113          	addi	sp,sp,-3
 12c:	00511203          	lh	tp,5(sp)
 130:	02500e93          	li	t4,37
 134:	ffffe0b7          	lui	ra,0xffffe
 138:	ead08093          	addi	ra,ra,-339 # ffffdead <__stack_top+0xffffba9d>
 13c:	1a121463          	bne	tp,ra,2e4 <_fail>
 140:	00002117          	auipc	sp,0x2
 144:	ec010113          	addi	sp,sp,-320 # 2000 <tdata_0>
 148:	00011203          	lh	tp,0(sp)
 14c:	00020393          	mv	t2,tp
 150:	02b00e93          	li	t4,43
 154:	ffffc0b7          	lui	ra,0xffffc
 158:	eef08093          	addi	ra,ra,-273 # ffffbeef <__stack_top+0xffff9adf>
 15c:	18139463          	bne	t2,ra,2e4 <_fail>
 160:	00002117          	auipc	sp,0x2
 164:	ea010113          	addi	sp,sp,-352 # 2000 <tdata_0>
 168:	00211203          	lh	tp,2(sp)
 16c:	00000013          	nop
 170:	00020393          	mv	t2,tp
 174:	02c00e93          	li	t4,44
 178:	ffffe0b7          	lui	ra,0xffffe
 17c:	ead08093          	addi	ra,ra,-339 # ffffdead <__stack_top+0xffffba9d>
 180:	16139263          	bne	t2,ra,2e4 <_fail>
 184:	00002117          	auipc	sp,0x2
 188:	e8010113          	addi	sp,sp,-384 # 2004 <tdata_1>
 18c:	00011203          	lh	tp,0(sp)
 190:	00000013          	nop
 194:	00000013          	nop
 198:	00020393          	mv	t2,tp
 19c:	02d00e93          	li	t4,45
 1a0:	0ff00093          	li	ra,255
 1a4:	14139063          	bne	t2,ra,2e4 <_fail>
 1a8:	00002117          	auipc	sp,0x2
 1ac:	e5c10113          	addi	sp,sp,-420 # 2004 <tdata_1>
 1b0:	00211203          	lh	tp,2(sp)
 1b4:	00000013          	nop
 1b8:	00000013          	nop
 1bc:	00000013          	nop
 1c0:	00020393          	mv	t2,tp
 1c4:	02e00e93          	li	t4,46
 1c8:	f0000093          	li	ra,-256
 1cc:	10139c63          	bne	t2,ra,2e4 <_fail>
 1d0:	00002117          	auipc	sp,0x2
 1d4:	e3810113          	addi	sp,sp,-456 # 2008 <tdata_2>
 1d8:	00011203          	lh	tp,0(sp)
 1dc:	00000013          	nop
 1e0:	00000013          	nop
 1e4:	00000013          	nop
 1e8:	00000013          	nop
 1ec:	00020393          	mv	t2,tp
 1f0:	02f00e93          	li	t4,47
 1f4:	f0000093          	li	ra,-256
 1f8:	0e139663          	bne	t2,ra,2e4 <_fail>
 1fc:	00002117          	auipc	sp,0x2
 200:	e0410113          	addi	sp,sp,-508 # 2000 <tdata_0>
 204:	00011203          	lh	tp,0(sp)
 208:	03100e93          	li	t4,49
 20c:	ffffc0b7          	lui	ra,0xffffc
 210:	eef08093          	addi	ra,ra,-273 # ffffbeef <__stack_top+0xffff9adf>
 214:	0c121863          	bne	tp,ra,2e4 <_fail>
 218:	00002117          	auipc	sp,0x2
 21c:	de810113          	addi	sp,sp,-536 # 2000 <tdata_0>
 220:	00000013          	nop
 224:	00211203          	lh	tp,2(sp)
 228:	03200e93          	li	t4,50
 22c:	ffffe0b7          	lui	ra,0xffffe
 230:	ead08093          	addi	ra,ra,-339 # ffffdead <__stack_top+0xffffba9d>
 234:	0a121863          	bne	tp,ra,2e4 <_fail>
 238:	00002117          	auipc	sp,0x2
 23c:	dcc10113          	addi	sp,sp,-564 # 2004 <tdata_1>
 240:	00000013          	nop
 244:	00000013          	nop
 248:	00011203          	lh	tp,0(sp)
 24c:	03300e93          	li	t4,51
 250:	0ff00093          	li	ra,255
 254:	08121863          	bne	tp,ra,2e4 <_fail>
 258:	00002117          	auipc	sp,0x2
 25c:	dac10113          	addi	sp,sp,-596 # 2004 <tdata_1>
 260:	00000013          	nop
 264:	00000013          	nop
 268:	00000013          	nop
 26c:	00211203          	lh	tp,2(sp)
 270:	03400e93          	li	t4,52
 274:	f0000093          	li	ra,-256
 278:	06121663          	bne	tp,ra,2e4 <_fail>
 27c:	00002117          	auipc	sp,0x2
 280:	d8c10113          	addi	sp,sp,-628 # 2008 <tdata_2>
 284:	00000013          	nop
 288:	00000013          	nop
 28c:	00000013          	nop
 290:	00000013          	nop
 294:	00011203          	lh	tp,0(sp)
 298:	03500e93          	li	t4,53
 29c:	f0000093          	li	ra,-256
 2a0:	04121263          	bne	tp,ra,2e4 <_fail>
 2a4:	00002217          	auipc	tp,0x2
 2a8:	d5c20213          	addi	tp,tp,-676 # 2000 <tdata_0>
 2ac:	00221183          	lh	gp,2(tp) # 2 <_start+0x2>
 2b0:	00200193          	li	gp,2
 2b4:	03c00e93          	li	t4,60
 2b8:	00200093          	li	ra,2
 2bc:	02119463          	bne	gp,ra,2e4 <_fail>
 2c0:	00002297          	auipc	t0,0x2
 2c4:	d4028293          	addi	t0,t0,-704 # 2000 <tdata_0>
 2c8:	00229303          	lh	t1,2(t0)
 2cc:	00130393          	addi	t2,t1,1
 2d0:	04300e93          	li	t4,67
 2d4:	ffffe0b7          	lui	ra,0xffffe
 2d8:	eae08093          	addi	ra,ra,-338 # ffffdeae <__stack_top+0xffffba9e>
 2dc:	00139463          	bne	t2,ra,2e4 <_fail>

000002e0 <_pass>:
 2e0:	00100e93          	li	t4,1

000002e4 <_fail>:
 2e4:	00100113          	li	sp,1
 2e8:	015e9073          	csrw	seed,t4
 2ec:	00201063          	bne	zero,sp,2ec <_fail+0x8>
 2f0:	00000013          	nop
 2f4:	00000013          	nop
 2f8:	00000013          	nop
 2fc:	00000013          	nop
 300:	00000013          	nop
 304:	00000013          	nop
 308:	00000013          	nop
 30c:	00000013          	nop
 310:	00000013          	nop
 314:	00000013          	nop
	...
