
bin/riscv-jr.elf:     file format elf32-littleriscv


Disassembly of section .text:

00000000 <_start>:
   0:	00e00e93          	li	t4,14
   4:	00000f93          	li	t6,0
   8:	00000197          	auipc	gp,0x0
   c:	01818193          	addi	gp,gp,24 # 20 <target>

00000010 <linkaddr>:
  10:	00018067          	jr	gp
  14:	00000013          	nop
  18:	00000013          	nop
  1c:	0840006f          	j	a0 <_fail>

00000020 <target>:
  20:	00000117          	auipc	sp,0x0
  24:	01410113          	addi	sp,sp,20 # 34 <target+0x14>
  28:	00010067          	jr	sp
  2c:	01f00e93          	li	t4,31
  30:	060e9863          	bnez	t4,a0 <_fail>
  34:	00000117          	auipc	sp,0x0
  38:	01810113          	addi	sp,sp,24 # 4c <target+0x2c>
  3c:	00000013          	nop
  40:	00010067          	jr	sp
  44:	02000e93          	li	t4,32
  48:	040e9c63          	bnez	t4,a0 <_fail>
  4c:	00000117          	auipc	sp,0x0
  50:	01c10113          	addi	sp,sp,28 # 68 <target+0x48>
  54:	00000013          	nop
  58:	00000013          	nop
  5c:	00010067          	jr	sp
  60:	02100e93          	li	t4,33
  64:	020e9e63          	bnez	t4,a0 <_fail>
  68:	00100113          	li	sp,1
  6c:	00000197          	auipc	gp,0x0
  70:	01c18193          	addi	gp,gp,28 # 88 <target+0x68>
  74:	00018067          	jr	gp
  78:	00110113          	addi	sp,sp,1
  7c:	00110113          	addi	sp,sp,1
  80:	00110113          	addi	sp,sp,1
  84:	00110113          	addi	sp,sp,1
  88:	00110113          	addi	sp,sp,1
  8c:	00110113          	addi	sp,sp,1
  90:	02e00e93          	li	t4,46
  94:	00300093          	li	ra,3
  98:	00111463          	bne	sp,ra,a0 <_fail>

0000009c <_pass>:
  9c:	00100e93          	li	t4,1

000000a0 <_fail>:
  a0:	00100113          	li	sp,1
  a4:	015e9073          	csrw	seed,t4
  a8:	00201063          	bne	zero,sp,a8 <_fail+0x8>
  ac:	00000013          	nop
  b0:	00000013          	nop
  b4:	00000013          	nop
  b8:	00000013          	nop
  bc:	00000013          	nop
  c0:	00000013          	nop
  c4:	00000013          	nop
  c8:	00000013          	nop
  cc:	00000013          	nop
  d0:	00000013          	nop
