
bin/riscv-blt.elf:     file format elf32-littleriscv


Disassembly of section .text:

00000000 <_start>:
   0:	00000113          	li	sp,0
   4:	00100193          	li	gp,1
   8:	00314a63          	blt	sp,gp,1c <_start+0x1c>
   c:	00d00e93          	li	t4,13
  10:	2a0e9663          	bnez	t4,2bc <_fail>
  14:	00100213          	li	tp,1
  18:	00401863          	bne	zero,tp,28 <_start+0x28>
  1c:	fe314ce3          	blt	sp,gp,14 <_start+0x14>
  20:	00d00e93          	li	t4,13
  24:	280e9c63          	bnez	t4,2bc <_fail>
  28:	fff00113          	li	sp,-1
  2c:	00000193          	li	gp,0
  30:	00314a63          	blt	sp,gp,44 <_start+0x44>
  34:	00e00e93          	li	t4,14
  38:	280e9263          	bnez	t4,2bc <_fail>
  3c:	00100213          	li	tp,1
  40:	00401863          	bne	zero,tp,50 <_start+0x50>
  44:	fe314ce3          	blt	sp,gp,3c <_start+0x3c>
  48:	00e00e93          	li	t4,14
  4c:	260e9863          	bnez	t4,2bc <_fail>
  50:	fff00113          	li	sp,-1
  54:	00100193          	li	gp,1
  58:	00314a63          	blt	sp,gp,6c <_start+0x6c>
  5c:	00f00e93          	li	t4,15
  60:	240e9e63          	bnez	t4,2bc <_fail>
  64:	00100213          	li	tp,1
  68:	00401863          	bne	zero,tp,78 <_start+0x78>
  6c:	fe314ce3          	blt	sp,gp,64 <_start+0x64>
  70:	00f00e93          	li	t4,15
  74:	240e9463          	bnez	t4,2bc <_fail>
  78:	00000113          	li	sp,0
  7c:	00000193          	li	gp,0
  80:	00314663          	blt	sp,gp,8c <_start+0x8c>
  84:	00100213          	li	tp,1
  88:	00401663          	bne	zero,tp,94 <_start+0x94>
  8c:	01100e93          	li	t4,17
  90:	220e9663          	bnez	t4,2bc <_fail>
  94:	fe314ce3          	blt	sp,gp,8c <_start+0x8c>
  98:	00000113          	li	sp,0
  9c:	fff00193          	li	gp,-1
  a0:	00314663          	blt	sp,gp,ac <_start+0xac>
  a4:	00100213          	li	tp,1
  a8:	00401663          	bne	zero,tp,b4 <_start+0xb4>
  ac:	01200e93          	li	t4,18
  b0:	200e9663          	bnez	t4,2bc <_fail>
  b4:	fe314ce3          	blt	sp,gp,ac <_start+0xac>
  b8:	00100113          	li	sp,1
  bc:	00000193          	li	gp,0
  c0:	00314663          	blt	sp,gp,cc <_start+0xcc>
  c4:	00100213          	li	tp,1
  c8:	00401663          	bne	zero,tp,d4 <_start+0xd4>
  cc:	01300e93          	li	t4,19
  d0:	1e0e9663          	bnez	t4,2bc <_fail>
  d4:	fe314ce3          	blt	sp,gp,cc <_start+0xcc>
  d8:	00100113          	li	sp,1
  dc:	fff00193          	li	gp,-1
  e0:	00314663          	blt	sp,gp,ec <_start+0xec>
  e4:	00100213          	li	tp,1
  e8:	00401663          	bne	zero,tp,f4 <_start+0xf4>
  ec:	01400e93          	li	t4,20
  f0:	1c0e9663          	bnez	t4,2bc <_fail>
  f4:	fe314ce3          	blt	sp,gp,ec <_start+0xec>
  f8:	00000113          	li	sp,0
  fc:	00000193          	li	gp,0
 100:	00314663          	blt	sp,gp,10c <_start+0x10c>
 104:	00100213          	li	tp,1
 108:	00401663          	bne	zero,tp,114 <_start+0x114>
 10c:	01a00e93          	li	t4,26
 110:	1a0e9663          	bnez	t4,2bc <_fail>
 114:	00000113          	li	sp,0
 118:	00000193          	li	gp,0
 11c:	00000013          	nop
 120:	00314663          	blt	sp,gp,12c <_start+0x12c>
 124:	00100213          	li	tp,1
 128:	00401663          	bne	zero,tp,134 <_start+0x134>
 12c:	01b00e93          	li	t4,27
 130:	180e9663          	bnez	t4,2bc <_fail>
 134:	00000113          	li	sp,0
 138:	00000193          	li	gp,0
 13c:	00000013          	nop
 140:	00000013          	nop
 144:	00314663          	blt	sp,gp,150 <_start+0x150>
 148:	00100213          	li	tp,1
 14c:	00401663          	bne	zero,tp,158 <_start+0x158>
 150:	01c00e93          	li	t4,28
 154:	160e9463          	bnez	t4,2bc <_fail>
 158:	00000113          	li	sp,0
 15c:	00000013          	nop
 160:	00000193          	li	gp,0
 164:	00314663          	blt	sp,gp,170 <_start+0x170>
 168:	00100213          	li	tp,1
 16c:	00401663          	bne	zero,tp,178 <_start+0x178>
 170:	01d00e93          	li	t4,29
 174:	140e9463          	bnez	t4,2bc <_fail>
 178:	00000113          	li	sp,0
 17c:	00000013          	nop
 180:	00000193          	li	gp,0
 184:	00000013          	nop
 188:	00314663          	blt	sp,gp,194 <_start+0x194>
 18c:	00100213          	li	tp,1
 190:	00401663          	bne	zero,tp,19c <_start+0x19c>
 194:	01e00e93          	li	t4,30
 198:	120e9263          	bnez	t4,2bc <_fail>
 19c:	00000113          	li	sp,0
 1a0:	00000013          	nop
 1a4:	00000013          	nop
 1a8:	00000193          	li	gp,0
 1ac:	00314663          	blt	sp,gp,1b8 <_start+0x1b8>
 1b0:	00100213          	li	tp,1
 1b4:	00401663          	bne	zero,tp,1c0 <_start+0x1c0>
 1b8:	01f00e93          	li	t4,31
 1bc:	100e9063          	bnez	t4,2bc <_fail>
 1c0:	00000193          	li	gp,0
 1c4:	00000113          	li	sp,0
 1c8:	00314663          	blt	sp,gp,1d4 <_start+0x1d4>
 1cc:	00100213          	li	tp,1
 1d0:	00401663          	bne	zero,tp,1dc <_start+0x1dc>
 1d4:	02100e93          	li	t4,33
 1d8:	0e0e9263          	bnez	t4,2bc <_fail>
 1dc:	00000193          	li	gp,0
 1e0:	00000113          	li	sp,0
 1e4:	00000013          	nop
 1e8:	00314663          	blt	sp,gp,1f4 <_start+0x1f4>
 1ec:	00100213          	li	tp,1
 1f0:	00401663          	bne	zero,tp,1fc <_start+0x1fc>
 1f4:	02200e93          	li	t4,34
 1f8:	0c0e9263          	bnez	t4,2bc <_fail>
 1fc:	00000193          	li	gp,0
 200:	00000113          	li	sp,0
 204:	00000013          	nop
 208:	00000013          	nop
 20c:	00314663          	blt	sp,gp,218 <_start+0x218>
 210:	00100213          	li	tp,1
 214:	00401663          	bne	zero,tp,220 <_start+0x220>
 218:	02300e93          	li	t4,35
 21c:	0a0e9063          	bnez	t4,2bc <_fail>
 220:	00000193          	li	gp,0
 224:	00000013          	nop
 228:	00000113          	li	sp,0
 22c:	00314663          	blt	sp,gp,238 <_start+0x238>
 230:	00100213          	li	tp,1
 234:	00401663          	bne	zero,tp,240 <_start+0x240>
 238:	02400e93          	li	t4,36
 23c:	080e9063          	bnez	t4,2bc <_fail>
 240:	00000193          	li	gp,0
 244:	00000013          	nop
 248:	00000113          	li	sp,0
 24c:	00000013          	nop
 250:	00314663          	blt	sp,gp,25c <_start+0x25c>
 254:	00100213          	li	tp,1
 258:	00401663          	bne	zero,tp,264 <_start+0x264>
 25c:	02500e93          	li	t4,37
 260:	040e9e63          	bnez	t4,2bc <_fail>
 264:	00000193          	li	gp,0
 268:	00000013          	nop
 26c:	00000013          	nop
 270:	00000113          	li	sp,0
 274:	00314663          	blt	sp,gp,280 <_start+0x280>
 278:	00100213          	li	tp,1
 27c:	00401663          	bne	zero,tp,288 <_start+0x288>
 280:	02600e93          	li	t4,38
 284:	020e9c63          	bnez	t4,2bc <_fail>
 288:	fff00113          	li	sp,-1
 28c:	00100193          	li	gp,1
 290:	00314a63          	blt	sp,gp,2a4 <_start+0x2a4>
 294:	00110113          	addi	sp,sp,1
 298:	00110113          	addi	sp,sp,1
 29c:	00110113          	addi	sp,sp,1
 2a0:	00110113          	addi	sp,sp,1
 2a4:	00110113          	addi	sp,sp,1
 2a8:	00110113          	addi	sp,sp,1
 2ac:	03500e93          	li	t4,53
 2b0:	00100093          	li	ra,1
 2b4:	00111463          	bne	sp,ra,2bc <_fail>

000002b8 <_pass>:
 2b8:	00100e93          	li	t4,1

000002bc <_fail>:
 2bc:	00100113          	li	sp,1
 2c0:	015e9073          	csrw	seed,t4
 2c4:	00201063          	bne	zero,sp,2c4 <_fail+0x8>
 2c8:	00000013          	nop
 2cc:	00000013          	nop
 2d0:	00000013          	nop
 2d4:	00000013          	nop
 2d8:	00000013          	nop
 2dc:	00000013          	nop
 2e0:	00000013          	nop
 2e4:	00000013          	nop
 2e8:	00000013          	nop
 2ec:	00000013          	nop
 2f0:	0000                	.insn	2, 0x
	...
