
bin/riscv-or.elf:     file format elf32-littleriscv


Disassembly of section .text:

00000000 <_start>:
   0:	ff010137          	lui	sp,0xff010
   4:	f0010113          	addi	sp,sp,-256 # ff00ff00 <__stack_top+0xff00db00>
   8:	0f0f11b7          	lui	gp,0xf0f1
   c:	f0f18193          	addi	gp,gp,-241 # f0f0f0f <__stack_top+0xf0eeb0f>
  10:	00316233          	or	tp,sp,gp
  14:	00d00e93          	li	t4,13
  18:	ff1000b7          	lui	ra,0xff100
  1c:	f0f08093          	addi	ra,ra,-241 # ff0fff0f <__stack_top+0xff0fdb0f>
  20:	34121663          	bne	tp,ra,36c <_fail>
  24:	0ff01137          	lui	sp,0xff01
  28:	ff010113          	addi	sp,sp,-16 # ff00ff0 <__stack_top+0xfefebf0>
  2c:	f0f0f1b7          	lui	gp,0xf0f0f
  30:	0f018193          	addi	gp,gp,240 # f0f0f0f0 <__stack_top+0xf0f0ccf0>
  34:	00316233          	or	tp,sp,gp
  38:	00e00e93          	li	t4,14
  3c:	fff100b7          	lui	ra,0xfff10
  40:	ff008093          	addi	ra,ra,-16 # fff0fff0 <__stack_top+0xfff0dbf0>
  44:	32121463          	bne	tp,ra,36c <_fail>
  48:	00ff0137          	lui	sp,0xff0
  4c:	0ff10113          	addi	sp,sp,255 # ff00ff <__stack_top+0xfedcff>
  50:	0f0f11b7          	lui	gp,0xf0f1
  54:	f0f18193          	addi	gp,gp,-241 # f0f0f0f <__stack_top+0xf0eeb0f>
  58:	00316233          	or	tp,sp,gp
  5c:	00f00e93          	li	t4,15
  60:	0fff10b7          	lui	ra,0xfff1
  64:	fff08093          	addi	ra,ra,-1 # fff0fff <__stack_top+0xffeebff>
  68:	30121263          	bne	tp,ra,36c <_fail>
  6c:	f00ff137          	lui	sp,0xf00ff
  70:	00f10113          	addi	sp,sp,15 # f00ff00f <__stack_top+0xf00fcc0f>
  74:	f0f0f1b7          	lui	gp,0xf0f0f
  78:	0f018193          	addi	gp,gp,240 # f0f0f0f0 <__stack_top+0xf0f0ccf0>
  7c:	00316233          	or	tp,sp,gp
  80:	01000e93          	li	t4,16
  84:	f0fff0b7          	lui	ra,0xf0fff
  88:	0ff08093          	addi	ra,ra,255 # f0fff0ff <__stack_top+0xf0ffccff>
  8c:	2e121063          	bne	tp,ra,36c <_fail>
  90:	ff010137          	lui	sp,0xff010
  94:	f0010113          	addi	sp,sp,-256 # ff00ff00 <__stack_top+0xff00db00>
  98:	0f0f11b7          	lui	gp,0xf0f1
  9c:	f0f18193          	addi	gp,gp,-241 # f0f0f0f <__stack_top+0xf0eeb0f>
  a0:	00316133          	or	sp,sp,gp
  a4:	01600e93          	li	t4,22
  a8:	ff1000b7          	lui	ra,0xff100
  ac:	f0f08093          	addi	ra,ra,-241 # ff0fff0f <__stack_top+0xff0fdb0f>
  b0:	2a111e63          	bne	sp,ra,36c <_fail>
  b4:	ff010137          	lui	sp,0xff010
  b8:	f0010113          	addi	sp,sp,-256 # ff00ff00 <__stack_top+0xff00db00>
  bc:	0f0f11b7          	lui	gp,0xf0f1
  c0:	f0f18193          	addi	gp,gp,-241 # f0f0f0f <__stack_top+0xf0eeb0f>
  c4:	003161b3          	or	gp,sp,gp
  c8:	01700e93          	li	t4,23
  cc:	ff1000b7          	lui	ra,0xff100
  d0:	f0f08093          	addi	ra,ra,-241 # ff0fff0f <__stack_top+0xff0fdb0f>
  d4:	28119c63          	bne	gp,ra,36c <_fail>
  d8:	ff010137          	lui	sp,0xff010
  dc:	f0010113          	addi	sp,sp,-256 # ff00ff00 <__stack_top+0xff00db00>
  e0:	00216133          	or	sp,sp,sp
  e4:	01800e93          	li	t4,24
  e8:	ff0100b7          	lui	ra,0xff010
  ec:	f0008093          	addi	ra,ra,-256 # ff00ff00 <__stack_top+0xff00db00>
  f0:	26111e63          	bne	sp,ra,36c <_fail>
  f4:	ff010137          	lui	sp,0xff010
  f8:	f0010113          	addi	sp,sp,-256 # ff00ff00 <__stack_top+0xff00db00>
  fc:	0f0f11b7          	lui	gp,0xf0f1
 100:	f0f18193          	addi	gp,gp,-241 # f0f0f0f <__stack_top+0xf0eeb0f>
 104:	00316233          	or	tp,sp,gp
 108:	00020393          	mv	t2,tp
 10c:	01e00e93          	li	t4,30
 110:	ff1000b7          	lui	ra,0xff100
 114:	f0f08093          	addi	ra,ra,-241 # ff0fff0f <__stack_top+0xff0fdb0f>
 118:	24139a63          	bne	t2,ra,36c <_fail>
 11c:	0ff01137          	lui	sp,0xff01
 120:	ff010113          	addi	sp,sp,-16 # ff00ff0 <__stack_top+0xfefebf0>
 124:	f0f0f1b7          	lui	gp,0xf0f0f
 128:	0f018193          	addi	gp,gp,240 # f0f0f0f0 <__stack_top+0xf0f0ccf0>
 12c:	00316233          	or	tp,sp,gp
 130:	00000013          	nop
 134:	00020393          	mv	t2,tp
 138:	01f00e93          	li	t4,31
 13c:	fff100b7          	lui	ra,0xfff10
 140:	ff008093          	addi	ra,ra,-16 # fff0fff0 <__stack_top+0xfff0dbf0>
 144:	22139463          	bne	t2,ra,36c <_fail>
 148:	00ff0137          	lui	sp,0xff0
 14c:	0ff10113          	addi	sp,sp,255 # ff00ff <__stack_top+0xfedcff>
 150:	0f0f11b7          	lui	gp,0xf0f1
 154:	f0f18193          	addi	gp,gp,-241 # f0f0f0f <__stack_top+0xf0eeb0f>
 158:	00316233          	or	tp,sp,gp
 15c:	00000013          	nop
 160:	00000013          	nop
 164:	00020393          	mv	t2,tp
 168:	02000e93          	li	t4,32
 16c:	0fff10b7          	lui	ra,0xfff1
 170:	fff08093          	addi	ra,ra,-1 # fff0fff <__stack_top+0xffeebff>
 174:	1e139c63          	bne	t2,ra,36c <_fail>
 178:	ff010137          	lui	sp,0xff010
 17c:	f0010113          	addi	sp,sp,-256 # ff00ff00 <__stack_top+0xff00db00>
 180:	0f0f11b7          	lui	gp,0xf0f1
 184:	f0f18193          	addi	gp,gp,-241 # f0f0f0f <__stack_top+0xf0eeb0f>
 188:	00316233          	or	tp,sp,gp
 18c:	02200e93          	li	t4,34
 190:	ff1000b7          	lui	ra,0xff100
 194:	f0f08093          	addi	ra,ra,-241 # ff0fff0f <__stack_top+0xff0fdb0f>
 198:	1c121a63          	bne	tp,ra,36c <_fail>
 19c:	0ff01137          	lui	sp,0xff01
 1a0:	ff010113          	addi	sp,sp,-16 # ff00ff0 <__stack_top+0xfefebf0>
 1a4:	f0f0f1b7          	lui	gp,0xf0f0f
 1a8:	0f018193          	addi	gp,gp,240 # f0f0f0f0 <__stack_top+0xf0f0ccf0>
 1ac:	00000013          	nop
 1b0:	00316233          	or	tp,sp,gp
 1b4:	02300e93          	li	t4,35
 1b8:	fff100b7          	lui	ra,0xfff10
 1bc:	ff008093          	addi	ra,ra,-16 # fff0fff0 <__stack_top+0xfff0dbf0>
 1c0:	1a121663          	bne	tp,ra,36c <_fail>
 1c4:	00ff0137          	lui	sp,0xff0
 1c8:	0ff10113          	addi	sp,sp,255 # ff00ff <__stack_top+0xfedcff>
 1cc:	0f0f11b7          	lui	gp,0xf0f1
 1d0:	f0f18193          	addi	gp,gp,-241 # f0f0f0f <__stack_top+0xf0eeb0f>
 1d4:	00000013          	nop
 1d8:	00000013          	nop
 1dc:	00316233          	or	tp,sp,gp
 1e0:	02400e93          	li	t4,36
 1e4:	0fff10b7          	lui	ra,0xfff1
 1e8:	fff08093          	addi	ra,ra,-1 # fff0fff <__stack_top+0xffeebff>
 1ec:	18121063          	bne	tp,ra,36c <_fail>
 1f0:	ff010137          	lui	sp,0xff010
 1f4:	f0010113          	addi	sp,sp,-256 # ff00ff00 <__stack_top+0xff00db00>
 1f8:	00000013          	nop
 1fc:	0f0f11b7          	lui	gp,0xf0f1
 200:	f0f18193          	addi	gp,gp,-241 # f0f0f0f <__stack_top+0xf0eeb0f>
 204:	00316233          	or	tp,sp,gp
 208:	02500e93          	li	t4,37
 20c:	ff1000b7          	lui	ra,0xff100
 210:	f0f08093          	addi	ra,ra,-241 # ff0fff0f <__stack_top+0xff0fdb0f>
 214:	14121c63          	bne	tp,ra,36c <_fail>
 218:	0ff01137          	lui	sp,0xff01
 21c:	ff010113          	addi	sp,sp,-16 # ff00ff0 <__stack_top+0xfefebf0>
 220:	00000013          	nop
 224:	f0f0f1b7          	lui	gp,0xf0f0f
 228:	0f018193          	addi	gp,gp,240 # f0f0f0f0 <__stack_top+0xf0f0ccf0>
 22c:	00000013          	nop
 230:	00316233          	or	tp,sp,gp
 234:	02600e93          	li	t4,38
 238:	fff100b7          	lui	ra,0xfff10
 23c:	ff008093          	addi	ra,ra,-16 # fff0fff0 <__stack_top+0xfff0dbf0>
 240:	12121663          	bne	tp,ra,36c <_fail>
 244:	00ff0137          	lui	sp,0xff0
 248:	0ff10113          	addi	sp,sp,255 # ff00ff <__stack_top+0xfedcff>
 24c:	00000013          	nop
 250:	00000013          	nop
 254:	0f0f11b7          	lui	gp,0xf0f1
 258:	f0f18193          	addi	gp,gp,-241 # f0f0f0f <__stack_top+0xf0eeb0f>
 25c:	00316233          	or	tp,sp,gp
 260:	02700e93          	li	t4,39
 264:	0fff10b7          	lui	ra,0xfff1
 268:	fff08093          	addi	ra,ra,-1 # fff0fff <__stack_top+0xffeebff>
 26c:	10121063          	bne	tp,ra,36c <_fail>
 270:	0f0f11b7          	lui	gp,0xf0f1
 274:	f0f18193          	addi	gp,gp,-241 # f0f0f0f <__stack_top+0xf0eeb0f>
 278:	ff010137          	lui	sp,0xff010
 27c:	f0010113          	addi	sp,sp,-256 # ff00ff00 <__stack_top+0xff00db00>
 280:	00316233          	or	tp,sp,gp
 284:	02900e93          	li	t4,41
 288:	ff1000b7          	lui	ra,0xff100
 28c:	f0f08093          	addi	ra,ra,-241 # ff0fff0f <__stack_top+0xff0fdb0f>
 290:	0c121e63          	bne	tp,ra,36c <_fail>
 294:	f0f0f1b7          	lui	gp,0xf0f0f
 298:	0f018193          	addi	gp,gp,240 # f0f0f0f0 <__stack_top+0xf0f0ccf0>
 29c:	0ff01137          	lui	sp,0xff01
 2a0:	ff010113          	addi	sp,sp,-16 # ff00ff0 <__stack_top+0xfefebf0>
 2a4:	00000013          	nop
 2a8:	00316233          	or	tp,sp,gp
 2ac:	02a00e93          	li	t4,42
 2b0:	fff100b7          	lui	ra,0xfff10
 2b4:	ff008093          	addi	ra,ra,-16 # fff0fff0 <__stack_top+0xfff0dbf0>
 2b8:	0a121a63          	bne	tp,ra,36c <_fail>
 2bc:	0f0f11b7          	lui	gp,0xf0f1
 2c0:	f0f18193          	addi	gp,gp,-241 # f0f0f0f <__stack_top+0xf0eeb0f>
 2c4:	00ff0137          	lui	sp,0xff0
 2c8:	0ff10113          	addi	sp,sp,255 # ff00ff <__stack_top+0xfedcff>
 2cc:	00000013          	nop
 2d0:	00000013          	nop
 2d4:	00316233          	or	tp,sp,gp
 2d8:	02b00e93          	li	t4,43
 2dc:	0fff10b7          	lui	ra,0xfff1
 2e0:	fff08093          	addi	ra,ra,-1 # fff0fff <__stack_top+0xffeebff>
 2e4:	08121463          	bne	tp,ra,36c <_fail>
 2e8:	0f0f11b7          	lui	gp,0xf0f1
 2ec:	f0f18193          	addi	gp,gp,-241 # f0f0f0f <__stack_top+0xf0eeb0f>
 2f0:	00000013          	nop
 2f4:	ff010137          	lui	sp,0xff010
 2f8:	f0010113          	addi	sp,sp,-256 # ff00ff00 <__stack_top+0xff00db00>
 2fc:	00316233          	or	tp,sp,gp
 300:	02c00e93          	li	t4,44
 304:	ff1000b7          	lui	ra,0xff100
 308:	f0f08093          	addi	ra,ra,-241 # ff0fff0f <__stack_top+0xff0fdb0f>
 30c:	06121063          	bne	tp,ra,36c <_fail>
 310:	f0f0f1b7          	lui	gp,0xf0f0f
 314:	0f018193          	addi	gp,gp,240 # f0f0f0f0 <__stack_top+0xf0f0ccf0>
 318:	00000013          	nop
 31c:	0ff01137          	lui	sp,0xff01
 320:	ff010113          	addi	sp,sp,-16 # ff00ff0 <__stack_top+0xfefebf0>
 324:	00000013          	nop
 328:	00316233          	or	tp,sp,gp
 32c:	02d00e93          	li	t4,45
 330:	fff100b7          	lui	ra,0xfff10
 334:	ff008093          	addi	ra,ra,-16 # fff0fff0 <__stack_top+0xfff0dbf0>
 338:	02121a63          	bne	tp,ra,36c <_fail>
 33c:	0f0f11b7          	lui	gp,0xf0f1
 340:	f0f18193          	addi	gp,gp,-241 # f0f0f0f <__stack_top+0xf0eeb0f>
 344:	00000013          	nop
 348:	00000013          	nop
 34c:	00ff0137          	lui	sp,0xff0
 350:	0ff10113          	addi	sp,sp,255 # ff00ff <__stack_top+0xfedcff>
 354:	00316233          	or	tp,sp,gp
 358:	02e00e93          	li	t4,46
 35c:	0fff10b7          	lui	ra,0xfff1
 360:	fff08093          	addi	ra,ra,-1 # fff0fff <__stack_top+0xffeebff>
 364:	00121463          	bne	tp,ra,36c <_fail>

00000368 <_pass>:
 368:	00100e93          	li	t4,1

0000036c <_fail>:
 36c:	00100113          	li	sp,1
 370:	015e9073          	csrw	seed,t4
 374:	00201063          	bne	zero,sp,374 <_fail+0x8>
 378:	00000013          	nop
 37c:	00000013          	nop
 380:	00000013          	nop
 384:	00000013          	nop
 388:	00000013          	nop
 38c:	00000013          	nop
 390:	00000013          	nop
 394:	00000013          	nop
 398:	00000013          	nop
 39c:	00000013          	nop
 3a0:	0000                	.insn	2, 0x
	...
