
bin/riscv-ori.elf:     file format elf32-littleriscv


Disassembly of section .text:

00000000 <_start>:
   0:	ff010137          	lui	sp,0xff010
   4:	f0010113          	addi	sp,sp,-256 # ff00ff00 <__stack_top+0xff00db00>
   8:	f0f16213          	ori	tp,sp,-241
   c:	00e00e93          	li	t4,14
  10:	f0f00093          	li	ra,-241
  14:	12121c63          	bne	tp,ra,14c <_fail>
  18:	0ff01137          	lui	sp,0xff01
  1c:	ff010113          	addi	sp,sp,-16 # ff00ff0 <__stack_top+0xfefebf0>
  20:	0f016213          	ori	tp,sp,240
  24:	00f00e93          	li	t4,15
  28:	0ff010b7          	lui	ra,0xff01
  2c:	ff008093          	addi	ra,ra,-16 # ff00ff0 <__stack_top+0xfefebf0>
  30:	10121e63          	bne	tp,ra,14c <_fail>
  34:	00ff0137          	lui	sp,0xff0
  38:	0ff10113          	addi	sp,sp,255 # ff00ff <__stack_top+0xfedcff>
  3c:	f0f16213          	ori	tp,sp,-241
  40:	01000e93          	li	t4,16
  44:	fff00093          	li	ra,-1
  48:	10121263          	bne	tp,ra,14c <_fail>
  4c:	f00ff137          	lui	sp,0xf00ff
  50:	00f10113          	addi	sp,sp,15 # f00ff00f <__stack_top+0xf00fcc0f>
  54:	0f016213          	ori	tp,sp,240
  58:	01100e93          	li	t4,17
  5c:	f00ff0b7          	lui	ra,0xf00ff
  60:	0ff08093          	addi	ra,ra,255 # f00ff0ff <__stack_top+0xf00fccff>
  64:	0e121463          	bne	tp,ra,14c <_fail>
  68:	ff010137          	lui	sp,0xff010
  6c:	f0010113          	addi	sp,sp,-256 # ff00ff00 <__stack_top+0xff00db00>
  70:	0f016113          	ori	sp,sp,240
  74:	01700e93          	li	t4,23
  78:	ff0100b7          	lui	ra,0xff010
  7c:	ff008093          	addi	ra,ra,-16 # ff00fff0 <__stack_top+0xff00dbf0>
  80:	0c111663          	bne	sp,ra,14c <_fail>
  84:	0ff01137          	lui	sp,0xff01
  88:	ff010113          	addi	sp,sp,-16 # ff00ff0 <__stack_top+0xfefebf0>
  8c:	0f016213          	ori	tp,sp,240
  90:	00020393          	mv	t2,tp
  94:	01d00e93          	li	t4,29
  98:	0ff010b7          	lui	ra,0xff01
  9c:	ff008093          	addi	ra,ra,-16 # ff00ff0 <__stack_top+0xfefebf0>
  a0:	0a139663          	bne	t2,ra,14c <_fail>
  a4:	00ff0137          	lui	sp,0xff0
  a8:	0ff10113          	addi	sp,sp,255 # ff00ff <__stack_top+0xfedcff>
  ac:	f0f16213          	ori	tp,sp,-241
  b0:	00000013          	nop
  b4:	00020393          	mv	t2,tp
  b8:	01e00e93          	li	t4,30
  bc:	fff00093          	li	ra,-1
  c0:	08139663          	bne	t2,ra,14c <_fail>
  c4:	f00ff137          	lui	sp,0xf00ff
  c8:	00f10113          	addi	sp,sp,15 # f00ff00f <__stack_top+0xf00fcc0f>
  cc:	0f016213          	ori	tp,sp,240
  d0:	00000013          	nop
  d4:	00000013          	nop
  d8:	00020393          	mv	t2,tp
  dc:	01f00e93          	li	t4,31
  e0:	f00ff0b7          	lui	ra,0xf00ff
  e4:	0ff08093          	addi	ra,ra,255 # f00ff0ff <__stack_top+0xf00fccff>
  e8:	06139263          	bne	t2,ra,14c <_fail>
  ec:	0ff01137          	lui	sp,0xff01
  f0:	ff010113          	addi	sp,sp,-16 # ff00ff0 <__stack_top+0xfefebf0>
  f4:	0f016213          	ori	tp,sp,240
  f8:	02100e93          	li	t4,33
  fc:	0ff010b7          	lui	ra,0xff01
 100:	ff008093          	addi	ra,ra,-16 # ff00ff0 <__stack_top+0xfefebf0>
 104:	04121463          	bne	tp,ra,14c <_fail>
 108:	00ff0137          	lui	sp,0xff0
 10c:	0ff10113          	addi	sp,sp,255 # ff00ff <__stack_top+0xfedcff>
 110:	00000013          	nop
 114:	f0f16213          	ori	tp,sp,-241
 118:	02200e93          	li	t4,34
 11c:	fff00093          	li	ra,-1
 120:	02121663          	bne	tp,ra,14c <_fail>
 124:	f00ff137          	lui	sp,0xf00ff
 128:	00f10113          	addi	sp,sp,15 # f00ff00f <__stack_top+0xf00fcc0f>
 12c:	00000013          	nop
 130:	00000013          	nop
 134:	0f016213          	ori	tp,sp,240
 138:	02300e93          	li	t4,35
 13c:	f00ff0b7          	lui	ra,0xf00ff
 140:	0ff08093          	addi	ra,ra,255 # f00ff0ff <__stack_top+0xf00fccff>
 144:	00121463          	bne	tp,ra,14c <_fail>

00000148 <_pass>:
 148:	00100e93          	li	t4,1

0000014c <_fail>:
 14c:	00100113          	li	sp,1
 150:	015e9073          	csrw	seed,t4
 154:	00201063          	bne	zero,sp,154 <_fail+0x8>
 158:	00000013          	nop
 15c:	00000013          	nop
 160:	00000013          	nop
 164:	00000013          	nop
 168:	00000013          	nop
 16c:	00000013          	nop
 170:	00000013          	nop
 174:	00000013          	nop
 178:	00000013          	nop
 17c:	00000013          	nop
 180:	0000                	.insn	2, 0x
	...
