
bin/riscv-lhu.elf:     file format elf32-littleriscv


Disassembly of section .text:

00000000 <_start>:
   0:	00002117          	auipc	sp,0x2
   4:	00010113          	mv	sp,sp
   8:	00015203          	lhu	tp,0(sp) # 2000 <tdata_0>
   c:	00d00e93          	li	t4,13
  10:	0000c0b7          	lui	ra,0xc
  14:	eef08093          	addi	ra,ra,-273 # beef <__stack_top+0x9adf>
  18:	2e121463          	bne	tp,ra,300 <_fail>
  1c:	00002117          	auipc	sp,0x2
  20:	fe410113          	addi	sp,sp,-28 # 2000 <tdata_0>
  24:	00215203          	lhu	tp,2(sp)
  28:	00e00e93          	li	t4,14
  2c:	0000e0b7          	lui	ra,0xe
  30:	ead08093          	addi	ra,ra,-339 # dead <__stack_top+0xba9d>
  34:	2c121663          	bne	tp,ra,300 <_fail>
  38:	00002117          	auipc	sp,0x2
  3c:	fc810113          	addi	sp,sp,-56 # 2000 <tdata_0>
  40:	00415203          	lhu	tp,4(sp)
  44:	00f00e93          	li	t4,15
  48:	0ff00093          	li	ra,255
  4c:	2a121a63          	bne	tp,ra,300 <_fail>
  50:	00002117          	auipc	sp,0x2
  54:	fb010113          	addi	sp,sp,-80 # 2000 <tdata_0>
  58:	00615203          	lhu	tp,6(sp)
  5c:	01000e93          	li	t4,16
  60:	000100b7          	lui	ra,0x10
  64:	f0008093          	addi	ra,ra,-256 # ff00 <__stack_top+0xdaf0>
  68:	28121c63          	bne	tp,ra,300 <_fail>
  6c:	00002117          	auipc	sp,0x2
  70:	f9c10113          	addi	sp,sp,-100 # 2008 <tdata_2>
  74:	ff815203          	lhu	tp,-8(sp)
  78:	01200e93          	li	t4,18
  7c:	0000c0b7          	lui	ra,0xc
  80:	eef08093          	addi	ra,ra,-273 # beef <__stack_top+0x9adf>
  84:	26121e63          	bne	tp,ra,300 <_fail>
  88:	00002117          	auipc	sp,0x2
  8c:	f8010113          	addi	sp,sp,-128 # 2008 <tdata_2>
  90:	ffa15203          	lhu	tp,-6(sp)
  94:	01300e93          	li	t4,19
  98:	0000e0b7          	lui	ra,0xe
  9c:	ead08093          	addi	ra,ra,-339 # dead <__stack_top+0xba9d>
  a0:	26121063          	bne	tp,ra,300 <_fail>
  a4:	00002117          	auipc	sp,0x2
  a8:	f6410113          	addi	sp,sp,-156 # 2008 <tdata_2>
  ac:	ffc15203          	lhu	tp,-4(sp)
  b0:	01400e93          	li	t4,20
  b4:	0ff00093          	li	ra,255
  b8:	24121463          	bne	tp,ra,300 <_fail>
  bc:	00002117          	auipc	sp,0x2
  c0:	f4c10113          	addi	sp,sp,-180 # 2008 <tdata_2>
  c4:	ffe15203          	lhu	tp,-2(sp)
  c8:	01500e93          	li	t4,21
  cc:	000100b7          	lui	ra,0x10
  d0:	f0008093          	addi	ra,ra,-256 # ff00 <__stack_top+0xdaf0>
  d4:	22121663          	bne	tp,ra,300 <_fail>
  d8:	00002117          	auipc	sp,0x2
  dc:	f3010113          	addi	sp,sp,-208 # 2008 <tdata_2>
  e0:	00015203          	lhu	tp,0(sp)
  e4:	01600e93          	li	t4,22
  e8:	000100b7          	lui	ra,0x10
  ec:	f0008093          	addi	ra,ra,-256 # ff00 <__stack_top+0xdaf0>
  f0:	20121863          	bne	tp,ra,300 <_fail>
  f4:	00002117          	auipc	sp,0x2
  f8:	f1410113          	addi	sp,sp,-236 # 2008 <tdata_2>
  fc:	00215203          	lhu	tp,2(sp)
 100:	01700e93          	li	t4,23
 104:	0ff00093          	li	ra,255
 108:	1e121c63          	bne	tp,ra,300 <_fail>
 10c:	00002117          	auipc	sp,0x2
 110:	ef410113          	addi	sp,sp,-268 # 2000 <tdata_0>
 114:	fe010113          	addi	sp,sp,-32
 118:	02215203          	lhu	tp,34(sp)
 11c:	01e00e93          	li	t4,30
 120:	0000e0b7          	lui	ra,0xe
 124:	ead08093          	addi	ra,ra,-339 # dead <__stack_top+0xba9d>
 128:	1c121c63          	bne	tp,ra,300 <_fail>
 12c:	00002117          	auipc	sp,0x2
 130:	ed410113          	addi	sp,sp,-300 # 2000 <tdata_0>
 134:	ffd10113          	addi	sp,sp,-3
 138:	00515203          	lhu	tp,5(sp)
 13c:	02500e93          	li	t4,37
 140:	0000e0b7          	lui	ra,0xe
 144:	ead08093          	addi	ra,ra,-339 # dead <__stack_top+0xba9d>
 148:	1a121c63          	bne	tp,ra,300 <_fail>
 14c:	00002117          	auipc	sp,0x2
 150:	eb410113          	addi	sp,sp,-332 # 2000 <tdata_0>
 154:	00015203          	lhu	tp,0(sp)
 158:	00020393          	mv	t2,tp
 15c:	02b00e93          	li	t4,43
 160:	0000c0b7          	lui	ra,0xc
 164:	eef08093          	addi	ra,ra,-273 # beef <__stack_top+0x9adf>
 168:	18139c63          	bne	t2,ra,300 <_fail>
 16c:	00002117          	auipc	sp,0x2
 170:	e9410113          	addi	sp,sp,-364 # 2000 <tdata_0>
 174:	00215203          	lhu	tp,2(sp)
 178:	00000013          	nop
 17c:	00020393          	mv	t2,tp
 180:	02c00e93          	li	t4,44
 184:	0000e0b7          	lui	ra,0xe
 188:	ead08093          	addi	ra,ra,-339 # dead <__stack_top+0xba9d>
 18c:	16139a63          	bne	t2,ra,300 <_fail>
 190:	00002117          	auipc	sp,0x2
 194:	e7410113          	addi	sp,sp,-396 # 2004 <tdata_1>
 198:	00015203          	lhu	tp,0(sp)
 19c:	00000013          	nop
 1a0:	00000013          	nop
 1a4:	00020393          	mv	t2,tp
 1a8:	02d00e93          	li	t4,45
 1ac:	0ff00093          	li	ra,255
 1b0:	14139863          	bne	t2,ra,300 <_fail>
 1b4:	00002117          	auipc	sp,0x2
 1b8:	e5010113          	addi	sp,sp,-432 # 2004 <tdata_1>
 1bc:	00215203          	lhu	tp,2(sp)
 1c0:	00000013          	nop
 1c4:	00000013          	nop
 1c8:	00000013          	nop
 1cc:	00020393          	mv	t2,tp
 1d0:	02e00e93          	li	t4,46
 1d4:	000100b7          	lui	ra,0x10
 1d8:	f0008093          	addi	ra,ra,-256 # ff00 <__stack_top+0xdaf0>
 1dc:	12139263          	bne	t2,ra,300 <_fail>
 1e0:	00002117          	auipc	sp,0x2
 1e4:	e2810113          	addi	sp,sp,-472 # 2008 <tdata_2>
 1e8:	00015203          	lhu	tp,0(sp)
 1ec:	00000013          	nop
 1f0:	00000013          	nop
 1f4:	00000013          	nop
 1f8:	00000013          	nop
 1fc:	00020393          	mv	t2,tp
 200:	02f00e93          	li	t4,47
 204:	000100b7          	lui	ra,0x10
 208:	f0008093          	addi	ra,ra,-256 # ff00 <__stack_top+0xdaf0>
 20c:	0e139a63          	bne	t2,ra,300 <_fail>
 210:	00002117          	auipc	sp,0x2
 214:	df010113          	addi	sp,sp,-528 # 2000 <tdata_0>
 218:	00015203          	lhu	tp,0(sp)
 21c:	03100e93          	li	t4,49
 220:	0000c0b7          	lui	ra,0xc
 224:	eef08093          	addi	ra,ra,-273 # beef <__stack_top+0x9adf>
 228:	0c121c63          	bne	tp,ra,300 <_fail>
 22c:	00002117          	auipc	sp,0x2
 230:	dd410113          	addi	sp,sp,-556 # 2000 <tdata_0>
 234:	00000013          	nop
 238:	00215203          	lhu	tp,2(sp)
 23c:	03200e93          	li	t4,50
 240:	0000e0b7          	lui	ra,0xe
 244:	ead08093          	addi	ra,ra,-339 # dead <__stack_top+0xba9d>
 248:	0a121c63          	bne	tp,ra,300 <_fail>
 24c:	00002117          	auipc	sp,0x2
 250:	db810113          	addi	sp,sp,-584 # 2004 <tdata_1>
 254:	00000013          	nop
 258:	00000013          	nop
 25c:	00015203          	lhu	tp,0(sp)
 260:	03300e93          	li	t4,51
 264:	0ff00093          	li	ra,255
 268:	08121c63          	bne	tp,ra,300 <_fail>
 26c:	00002117          	auipc	sp,0x2
 270:	d9810113          	addi	sp,sp,-616 # 2004 <tdata_1>
 274:	00000013          	nop
 278:	00000013          	nop
 27c:	00000013          	nop
 280:	00215203          	lhu	tp,2(sp)
 284:	03400e93          	li	t4,52
 288:	000100b7          	lui	ra,0x10
 28c:	f0008093          	addi	ra,ra,-256 # ff00 <__stack_top+0xdaf0>
 290:	06121863          	bne	tp,ra,300 <_fail>
 294:	00002117          	auipc	sp,0x2
 298:	d7410113          	addi	sp,sp,-652 # 2008 <tdata_2>
 29c:	00000013          	nop
 2a0:	00000013          	nop
 2a4:	00000013          	nop
 2a8:	00000013          	nop
 2ac:	00015203          	lhu	tp,0(sp)
 2b0:	03500e93          	li	t4,53
 2b4:	000100b7          	lui	ra,0x10
 2b8:	f0008093          	addi	ra,ra,-256 # ff00 <__stack_top+0xdaf0>
 2bc:	04121263          	bne	tp,ra,300 <_fail>
 2c0:	00002217          	auipc	tp,0x2
 2c4:	d4020213          	addi	tp,tp,-704 # 2000 <tdata_0>
 2c8:	00225183          	lhu	gp,2(tp) # 2 <_start+0x2>
 2cc:	00200193          	li	gp,2
 2d0:	03c00e93          	li	t4,60
 2d4:	00200093          	li	ra,2
 2d8:	02119463          	bne	gp,ra,300 <_fail>
 2dc:	00002297          	auipc	t0,0x2
 2e0:	d2428293          	addi	t0,t0,-732 # 2000 <tdata_0>
 2e4:	0022d303          	lhu	t1,2(t0)
 2e8:	00130393          	addi	t2,t1,1
 2ec:	04300e93          	li	t4,67
 2f0:	0000e0b7          	lui	ra,0xe
 2f4:	eae08093          	addi	ra,ra,-338 # deae <__stack_top+0xba9e>
 2f8:	00139463          	bne	t2,ra,300 <_fail>

000002fc <_pass>:
 2fc:	00100e93          	li	t4,1

00000300 <_fail>:
 300:	00100113          	li	sp,1
 304:	015e9073          	csrw	seed,t4
 308:	00201063          	bne	zero,sp,308 <_fail+0x8>
 30c:	00000013          	nop
 310:	00000013          	nop
 314:	00000013          	nop
 318:	00000013          	nop
 31c:	00000013          	nop
 320:	00000013          	nop
 324:	00000013          	nop
 328:	00000013          	nop
 32c:	00000013          	nop
 330:	00000013          	nop
