
bin/riscv-sw.elf:     file format elf32-littleriscv


Disassembly of section .text:

00000000 <_start>:
   0:	00002117          	auipc	sp,0x2
   4:	00010113          	mv	sp,sp
   8:	0ff00193          	li	gp,255
   c:	00312023          	sw	gp,0(sp) # 2000 <tdata_0>
  10:	00012203          	lw	tp,0(sp)
  14:	00d00e93          	li	t4,13
  18:	0ff00093          	li	ra,255
  1c:	46121863          	bne	tp,ra,48c <_fail>
  20:	00002117          	auipc	sp,0x2
  24:	fe010113          	addi	sp,sp,-32 # 2000 <tdata_0>
  28:	000081b7          	lui	gp,0x8
  2c:	f0018193          	addi	gp,gp,-256 # 7f00 <__stack_top+0x5ad0>
  30:	00312223          	sw	gp,4(sp)
  34:	00412203          	lw	tp,4(sp)
  38:	00e00e93          	li	t4,14
  3c:	000080b7          	lui	ra,0x8
  40:	f0008093          	addi	ra,ra,-256 # 7f00 <__stack_top+0x5ad0>
  44:	44121463          	bne	tp,ra,48c <_fail>
  48:	00002117          	auipc	sp,0x2
  4c:	fb810113          	addi	sp,sp,-72 # 2000 <tdata_0>
  50:	000011b7          	lui	gp,0x1
  54:	ff018193          	addi	gp,gp,-16 # ff0 <_fail+0xb64>
  58:	00312423          	sw	gp,8(sp)
  5c:	00812203          	lw	tp,8(sp)
  60:	00f00e93          	li	t4,15
  64:	000010b7          	lui	ra,0x1
  68:	ff008093          	addi	ra,ra,-16 # ff0 <_fail+0xb64>
  6c:	42121063          	bne	tp,ra,48c <_fail>
  70:	00002117          	auipc	sp,0x2
  74:	f9010113          	addi	sp,sp,-112 # 2000 <tdata_0>
  78:	000071b7          	lui	gp,0x7
  7c:	00f18193          	addi	gp,gp,15 # 700f <__stack_top+0x4bdf>
  80:	00312623          	sw	gp,12(sp)
  84:	00c12203          	lw	tp,12(sp)
  88:	01000e93          	li	t4,16
  8c:	000070b7          	lui	ra,0x7
  90:	00f08093          	addi	ra,ra,15 # 700f <__stack_top+0x4bdf>
  94:	3e121c63          	bne	tp,ra,48c <_fail>
  98:	00002117          	auipc	sp,0x2
  9c:	f7410113          	addi	sp,sp,-140 # 200c <tdata_3>
  a0:	deadc1b7          	lui	gp,0xdeadc
  a4:	eef18193          	addi	gp,gp,-273 # deadbeef <__stack_top+0xdead9abf>
  a8:	fe312a23          	sw	gp,-12(sp)
  ac:	ff412203          	lw	tp,-12(sp)
  b0:	01100e93          	li	t4,17
  b4:	deadc0b7          	lui	ra,0xdeadc
  b8:	eef08093          	addi	ra,ra,-273 # deadbeef <__stack_top+0xdead9abf>
  bc:	3c121863          	bne	tp,ra,48c <_fail>
  c0:	00002117          	auipc	sp,0x2
  c4:	f4c10113          	addi	sp,sp,-180 # 200c <tdata_3>
  c8:	deadc1b7          	lui	gp,0xdeadc
  cc:	eef18193          	addi	gp,gp,-273 # deadbeef <__stack_top+0xdead9abf>
  d0:	fe312c23          	sw	gp,-8(sp)
  d4:	ff812203          	lw	tp,-8(sp)
  d8:	01200e93          	li	t4,18
  dc:	deadc0b7          	lui	ra,0xdeadc
  e0:	eef08093          	addi	ra,ra,-273 # deadbeef <__stack_top+0xdead9abf>
  e4:	3a121463          	bne	tp,ra,48c <_fail>
  e8:	00002117          	auipc	sp,0x2
  ec:	f2410113          	addi	sp,sp,-220 # 200c <tdata_3>
  f0:	deadc1b7          	lui	gp,0xdeadc
  f4:	eef18193          	addi	gp,gp,-273 # deadbeef <__stack_top+0xdead9abf>
  f8:	fe312e23          	sw	gp,-4(sp)
  fc:	ffc12203          	lw	tp,-4(sp)
 100:	01300e93          	li	t4,19
 104:	deadc0b7          	lui	ra,0xdeadc
 108:	eef08093          	addi	ra,ra,-273 # deadbeef <__stack_top+0xdead9abf>
 10c:	38121063          	bne	tp,ra,48c <_fail>
 110:	00002117          	auipc	sp,0x2
 114:	efc10113          	addi	sp,sp,-260 # 200c <tdata_3>
 118:	deadc1b7          	lui	gp,0xdeadc
 11c:	eef18193          	addi	gp,gp,-273 # deadbeef <__stack_top+0xdead9abf>
 120:	00312023          	sw	gp,0(sp)
 124:	00012203          	lw	tp,0(sp)
 128:	01400e93          	li	t4,20
 12c:	deadc0b7          	lui	ra,0xdeadc
 130:	eef08093          	addi	ra,ra,-273 # deadbeef <__stack_top+0xdead9abf>
 134:	34121c63          	bne	tp,ra,48c <_fail>
 138:	00002117          	auipc	sp,0x2
 13c:	edc10113          	addi	sp,sp,-292 # 2014 <tdata_5>
 140:	beefe1b7          	lui	gp,0xbeefe
 144:	ead18193          	addi	gp,gp,-339 # beefdead <__stack_top+0xbeefba7d>
 148:	fe010293          	addi	t0,sp,-32
 14c:	0232a023          	sw	gp,32(t0)
 150:	00012203          	lw	tp,0(sp)
 154:	01d00e93          	li	t4,29
 158:	beefe0b7          	lui	ra,0xbeefe
 15c:	ead08093          	addi	ra,ra,-339 # beefdead <__stack_top+0xbeefba7d>
 160:	32121663          	bne	tp,ra,48c <_fail>
 164:	00002117          	auipc	sp,0x2
 168:	eb410113          	addi	sp,sp,-332 # 2018 <tdata_6>
 16c:	abcdf1b7          	lui	gp,0xabcdf
 170:	f0118193          	addi	gp,gp,-255 # abcdef01 <__stack_top+0xabcdcad1>
 174:	ffd10293          	addi	t0,sp,-3
 178:	0032a3a3          	sw	gp,7(t0)
 17c:	00002297          	auipc	t0,0x2
 180:	ea028293          	addi	t0,t0,-352 # 201c <tdata_7>
 184:	0002a203          	lw	tp,0(t0)
 188:	02700e93          	li	t4,39
 18c:	abcdf0b7          	lui	ra,0xabcdf
 190:	f0108093          	addi	ra,ra,-255 # abcdef01 <__stack_top+0xabcdcad1>
 194:	2e121c63          	bne	tp,ra,48c <_fail>
 198:	aabbd1b7          	lui	gp,0xaabbd
 19c:	cdd18193          	addi	gp,gp,-803 # aabbccdd <__stack_top+0xaabba8ad>
 1a0:	00002117          	auipc	sp,0x2
 1a4:	e8010113          	addi	sp,sp,-384 # 2020 <tdata_8>
 1a8:	00312023          	sw	gp,0(sp)
 1ac:	00012203          	lw	tp,0(sp)
 1b0:	02d00e93          	li	t4,45
 1b4:	aabbd0b7          	lui	ra,0xaabbd
 1b8:	cdd08093          	addi	ra,ra,-803 # aabbccdd <__stack_top+0xaabba8ad>
 1bc:	2c121863          	bne	tp,ra,48c <_fail>
 1c0:	eeff01b7          	lui	gp,0xeeff0
 1c4:	01118193          	addi	gp,gp,17 # eeff0011 <__stack_top+0xeefedbe1>
 1c8:	00002117          	auipc	sp,0x2
 1cc:	e5810113          	addi	sp,sp,-424 # 2020 <tdata_8>
 1d0:	00000013          	nop
 1d4:	00312223          	sw	gp,4(sp)
 1d8:	00412203          	lw	tp,4(sp)
 1dc:	02e00e93          	li	t4,46
 1e0:	eeff00b7          	lui	ra,0xeeff0
 1e4:	01108093          	addi	ra,ra,17 # eeff0011 <__stack_top+0xeefedbe1>
 1e8:	2a121263          	bne	tp,ra,48c <_fail>
 1ec:	beefe1b7          	lui	gp,0xbeefe
 1f0:	ead18193          	addi	gp,gp,-339 # beefdead <__stack_top+0xbeefba7d>
 1f4:	00002117          	auipc	sp,0x2
 1f8:	e3010113          	addi	sp,sp,-464 # 2024 <tdata_9>
 1fc:	00000013          	nop
 200:	00000013          	nop
 204:	00312023          	sw	gp,0(sp)
 208:	00012203          	lw	tp,0(sp)
 20c:	02f00e93          	li	t4,47
 210:	beefe0b7          	lui	ra,0xbeefe
 214:	ead08093          	addi	ra,ra,-339 # beefdead <__stack_top+0xbeefba7d>
 218:	26121a63          	bne	tp,ra,48c <_fail>
 21c:	aabbf1b7          	lui	gp,0xaabbf
 220:	eff18193          	addi	gp,gp,-257 # aabbeeff <__stack_top+0xaabbcacf>
 224:	00002117          	auipc	sp,0x2
 228:	e0010113          	addi	sp,sp,-512 # 2024 <tdata_9>
 22c:	00000013          	nop
 230:	00000013          	nop
 234:	00000013          	nop
 238:	00312223          	sw	gp,4(sp)
 23c:	00412203          	lw	tp,4(sp)
 240:	03000e93          	li	t4,48
 244:	aabbf0b7          	lui	ra,0xaabbf
 248:	eff08093          	addi	ra,ra,-257 # aabbeeff <__stack_top+0xaabbcacf>
 24c:	24121063          	bne	tp,ra,48c <_fail>
 250:	ccdd11b7          	lui	gp,0xccdd1
 254:	23418193          	addi	gp,gp,564 # ccdd1234 <__stack_top+0xccdcee04>
 258:	00002117          	auipc	sp,0x2
 25c:	dd010113          	addi	sp,sp,-560 # 2028 <tdata_10>
 260:	00000013          	nop
 264:	00000013          	nop
 268:	00000013          	nop
 26c:	00000013          	nop
 270:	00312023          	sw	gp,0(sp)
 274:	00012203          	lw	tp,0(sp)
 278:	03100e93          	li	t4,49
 27c:	ccdd10b7          	lui	ra,0xccdd1
 280:	23408093          	addi	ra,ra,564 # ccdd1234 <__stack_top+0xccdcee04>
 284:	20121463          	bne	tp,ra,48c <_fail>
 288:	eeffd1b7          	lui	gp,0xeeffd
 28c:	cdd18193          	addi	gp,gp,-803 # eeffccdd <__stack_top+0xeeffa8ad>
 290:	00002117          	auipc	sp,0x2
 294:	d9810113          	addi	sp,sp,-616 # 2028 <tdata_10>
 298:	00000013          	nop
 29c:	00000013          	nop
 2a0:	00000013          	nop
 2a4:	00312223          	sw	gp,4(sp)
 2a8:	00412203          	lw	tp,4(sp)
 2ac:	03200e93          	li	t4,50
 2b0:	eeffd0b7          	lui	ra,0xeeffd
 2b4:	cdd08093          	addi	ra,ra,-803 # eeffccdd <__stack_top+0xeeffa8ad>
 2b8:	1c121a63          	bne	tp,ra,48c <_fail>
 2bc:	fff00193          	li	gp,-1
 2c0:	00000013          	nop
 2c4:	00002117          	auipc	sp,0x2
 2c8:	d6810113          	addi	sp,sp,-664 # 202c <tdata_11>
 2cc:	00312023          	sw	gp,0(sp)
 2d0:	00012203          	lw	tp,0(sp)
 2d4:	03400e93          	li	t4,52
 2d8:	fff00093          	li	ra,-1
 2dc:	1a121863          	bne	tp,ra,48c <_fail>
 2e0:	00000193          	li	gp,0
 2e4:	00000013          	nop
 2e8:	00002117          	auipc	sp,0x2
 2ec:	d4410113          	addi	sp,sp,-700 # 202c <tdata_11>
 2f0:	00000013          	nop
 2f4:	00312023          	sw	gp,0(sp)
 2f8:	00012203          	lw	tp,0(sp)
 2fc:	03500e93          	li	t4,53
 300:	00000093          	li	ra,0
 304:	18121463          	bne	tp,ra,48c <_fail>
 308:	00002117          	auipc	sp,0x2
 30c:	d1810113          	addi	sp,sp,-744 # 2020 <tdata_8>
 310:	deadc1b7          	lui	gp,0xdeadc
 314:	eef18193          	addi	gp,gp,-273 # deadbeef <__stack_top+0xdead9abf>
 318:	00312023          	sw	gp,0(sp)
 31c:	00012203          	lw	tp,0(sp)
 320:	03700e93          	li	t4,55
 324:	deadc0b7          	lui	ra,0xdeadc
 328:	eef08093          	addi	ra,ra,-273 # deadbeef <__stack_top+0xdead9abf>
 32c:	16121063          	bne	tp,ra,48c <_fail>
 330:	00002117          	auipc	sp,0x2
 334:	cf010113          	addi	sp,sp,-784 # 2020 <tdata_8>
 338:	deadc1b7          	lui	gp,0xdeadc
 33c:	eef18193          	addi	gp,gp,-273 # deadbeef <__stack_top+0xdead9abf>
 340:	00000013          	nop
 344:	00312223          	sw	gp,4(sp)
 348:	00412203          	lw	tp,4(sp)
 34c:	03800e93          	li	t4,56
 350:	deadc0b7          	lui	ra,0xdeadc
 354:	eef08093          	addi	ra,ra,-273 # deadbeef <__stack_top+0xdead9abf>
 358:	12121a63          	bne	tp,ra,48c <_fail>
 35c:	00002117          	auipc	sp,0x2
 360:	cc810113          	addi	sp,sp,-824 # 2024 <tdata_9>
 364:	beefe1b7          	lui	gp,0xbeefe
 368:	ead18193          	addi	gp,gp,-339 # beefdead <__stack_top+0xbeefba7d>
 36c:	00000013          	nop
 370:	00000013          	nop
 374:	00312023          	sw	gp,0(sp)
 378:	00012203          	lw	tp,0(sp)
 37c:	03900e93          	li	t4,57
 380:	beefe0b7          	lui	ra,0xbeefe
 384:	ead08093          	addi	ra,ra,-339 # beefdead <__stack_top+0xbeefba7d>
 388:	10121263          	bne	tp,ra,48c <_fail>
 38c:	00002117          	auipc	sp,0x2
 390:	c9810113          	addi	sp,sp,-872 # 2024 <tdata_9>
 394:	deadc1b7          	lui	gp,0xdeadc
 398:	eef18193          	addi	gp,gp,-273 # deadbeef <__stack_top+0xdead9abf>
 39c:	00000013          	nop
 3a0:	00000013          	nop
 3a4:	00000013          	nop
 3a8:	00312223          	sw	gp,4(sp)
 3ac:	00412203          	lw	tp,4(sp)
 3b0:	03a00e93          	li	t4,58
 3b4:	deadc0b7          	lui	ra,0xdeadc
 3b8:	eef08093          	addi	ra,ra,-273 # deadbeef <__stack_top+0xdead9abf>
 3bc:	0c121863          	bne	tp,ra,48c <_fail>
 3c0:	00002117          	auipc	sp,0x2
 3c4:	c6810113          	addi	sp,sp,-920 # 2028 <tdata_10>
 3c8:	beefe1b7          	lui	gp,0xbeefe
 3cc:	ead18193          	addi	gp,gp,-339 # beefdead <__stack_top+0xbeefba7d>
 3d0:	00000013          	nop
 3d4:	00000013          	nop
 3d8:	00000013          	nop
 3dc:	00000013          	nop
 3e0:	00312023          	sw	gp,0(sp)
 3e4:	00012203          	lw	tp,0(sp)
 3e8:	03b00e93          	li	t4,59
 3ec:	beefe0b7          	lui	ra,0xbeefe
 3f0:	ead08093          	addi	ra,ra,-339 # beefdead <__stack_top+0xbeefba7d>
 3f4:	08121c63          	bne	tp,ra,48c <_fail>
 3f8:	00002117          	auipc	sp,0x2
 3fc:	c3010113          	addi	sp,sp,-976 # 2028 <tdata_10>
 400:	deadc1b7          	lui	gp,0xdeadc
 404:	eef18193          	addi	gp,gp,-273 # deadbeef <__stack_top+0xdead9abf>
 408:	00000013          	nop
 40c:	00000013          	nop
 410:	00000013          	nop
 414:	00312223          	sw	gp,4(sp)
 418:	00412203          	lw	tp,4(sp)
 41c:	03c00e93          	li	t4,60
 420:	deadc0b7          	lui	ra,0xdeadc
 424:	eef08093          	addi	ra,ra,-273 # deadbeef <__stack_top+0xdead9abf>
 428:	06121263          	bne	tp,ra,48c <_fail>
 42c:	00002117          	auipc	sp,0x2
 430:	c0010113          	addi	sp,sp,-1024 # 202c <tdata_11>
 434:	00000013          	nop
 438:	beefe1b7          	lui	gp,0xbeefe
 43c:	ead18193          	addi	gp,gp,-339 # beefdead <__stack_top+0xbeefba7d>
 440:	00312023          	sw	gp,0(sp)
 444:	00012203          	lw	tp,0(sp)
 448:	03e00e93          	li	t4,62
 44c:	beefe0b7          	lui	ra,0xbeefe
 450:	ead08093          	addi	ra,ra,-339 # beefdead <__stack_top+0xbeefba7d>
 454:	02121c63          	bne	tp,ra,48c <_fail>
 458:	00002117          	auipc	sp,0x2
 45c:	bd410113          	addi	sp,sp,-1068 # 202c <tdata_11>
 460:	00000013          	nop
 464:	deadc1b7          	lui	gp,0xdeadc
 468:	eef18193          	addi	gp,gp,-273 # deadbeef <__stack_top+0xdead9abf>
 46c:	00000013          	nop
 470:	00312223          	sw	gp,4(sp)
 474:	00412203          	lw	tp,4(sp)
 478:	03f00e93          	li	t4,63
 47c:	deadc0b7          	lui	ra,0xdeadc
 480:	eef08093          	addi	ra,ra,-273 # deadbeef <__stack_top+0xdead9abf>
 484:	00121463          	bne	tp,ra,48c <_fail>

00000488 <_pass>:
 488:	00100e93          	li	t4,1

0000048c <_fail>:
 48c:	00100113          	li	sp,1
 490:	015e9073          	csrw	seed,t4
 494:	00201063          	bne	zero,sp,494 <_fail+0x8>
 498:	00000013          	nop
 49c:	00000013          	nop
 4a0:	00000013          	nop
 4a4:	00000013          	nop
 4a8:	00000013          	nop
 4ac:	00000013          	nop
 4b0:	00000013          	nop
 4b4:	00000013          	nop
 4b8:	00000013          	nop
 4bc:	00000013          	nop
 4c0:	0000                	.insn	2, 0x
	...
