
bin/riscv-sll.elf:     file format elf32-littleriscv


Disassembly of section .text:

00000000 <_start>:
   0:	00100113          	li	sp,1
   4:	00000193          	li	gp,0
   8:	00311233          	sll	tp,sp,gp
   c:	00d00e93          	li	t4,13
  10:	00100093          	li	ra,1
  14:	40121a63          	bne	tp,ra,428 <_fail>
  18:	00100113          	li	sp,1
  1c:	00100193          	li	gp,1
  20:	00311233          	sll	tp,sp,gp
  24:	00e00e93          	li	t4,14
  28:	00200093          	li	ra,2
  2c:	3e121e63          	bne	tp,ra,428 <_fail>
  30:	00100113          	li	sp,1
  34:	00700193          	li	gp,7
  38:	00311233          	sll	tp,sp,gp
  3c:	00f00e93          	li	t4,15
  40:	08000093          	li	ra,128
  44:	3e121263          	bne	tp,ra,428 <_fail>
  48:	00100113          	li	sp,1
  4c:	00e00193          	li	gp,14
  50:	00311233          	sll	tp,sp,gp
  54:	01000e93          	li	t4,16
  58:	000040b7          	lui	ra,0x4
  5c:	3c121663          	bne	tp,ra,428 <_fail>
  60:	00100113          	li	sp,1
  64:	01f00193          	li	gp,31
  68:	00311233          	sll	tp,sp,gp
  6c:	01100e93          	li	t4,17
  70:	800000b7          	lui	ra,0x80000
  74:	3a121a63          	bne	tp,ra,428 <_fail>
  78:	fff00113          	li	sp,-1
  7c:	00000193          	li	gp,0
  80:	00311233          	sll	tp,sp,gp
  84:	01300e93          	li	t4,19
  88:	fff00093          	li	ra,-1
  8c:	38121e63          	bne	tp,ra,428 <_fail>
  90:	fff00113          	li	sp,-1
  94:	00100193          	li	gp,1
  98:	00311233          	sll	tp,sp,gp
  9c:	01400e93          	li	t4,20
  a0:	ffe00093          	li	ra,-2
  a4:	38121263          	bne	tp,ra,428 <_fail>
  a8:	fff00113          	li	sp,-1
  ac:	00700193          	li	gp,7
  b0:	00311233          	sll	tp,sp,gp
  b4:	01500e93          	li	t4,21
  b8:	f8000093          	li	ra,-128
  bc:	36121663          	bne	tp,ra,428 <_fail>
  c0:	fff00113          	li	sp,-1
  c4:	00e00193          	li	gp,14
  c8:	00311233          	sll	tp,sp,gp
  cc:	01600e93          	li	t4,22
  d0:	ffffc0b7          	lui	ra,0xffffc
  d4:	34121a63          	bne	tp,ra,428 <_fail>
  d8:	fff00113          	li	sp,-1
  dc:	01f00193          	li	gp,31
  e0:	00311233          	sll	tp,sp,gp
  e4:	01700e93          	li	t4,23
  e8:	800000b7          	lui	ra,0x80000
  ec:	32121e63          	bne	tp,ra,428 <_fail>
  f0:	21212137          	lui	sp,0x21212
  f4:	12110113          	addi	sp,sp,289 # 21212121 <__stack_top+0x2120fd21>
  f8:	00000193          	li	gp,0
  fc:	00311233          	sll	tp,sp,gp
 100:	01900e93          	li	t4,25
 104:	212120b7          	lui	ra,0x21212
 108:	12108093          	addi	ra,ra,289 # 21212121 <__stack_top+0x2120fd21>
 10c:	30121e63          	bne	tp,ra,428 <_fail>
 110:	21212137          	lui	sp,0x21212
 114:	12110113          	addi	sp,sp,289 # 21212121 <__stack_top+0x2120fd21>
 118:	00100193          	li	gp,1
 11c:	00311233          	sll	tp,sp,gp
 120:	01a00e93          	li	t4,26
 124:	424240b7          	lui	ra,0x42424
 128:	24208093          	addi	ra,ra,578 # 42424242 <__stack_top+0x42421e42>
 12c:	2e121e63          	bne	tp,ra,428 <_fail>
 130:	21212137          	lui	sp,0x21212
 134:	12110113          	addi	sp,sp,289 # 21212121 <__stack_top+0x2120fd21>
 138:	00700193          	li	gp,7
 13c:	00311233          	sll	tp,sp,gp
 140:	01b00e93          	li	t4,27
 144:	909090b7          	lui	ra,0x90909
 148:	08008093          	addi	ra,ra,128 # 90909080 <__stack_top+0x90906c80>
 14c:	2c121e63          	bne	tp,ra,428 <_fail>
 150:	21212137          	lui	sp,0x21212
 154:	12110113          	addi	sp,sp,289 # 21212121 <__stack_top+0x2120fd21>
 158:	00e00193          	li	gp,14
 15c:	00311233          	sll	tp,sp,gp
 160:	01c00e93          	li	t4,28
 164:	484840b7          	lui	ra,0x48484
 168:	2c121063          	bne	tp,ra,428 <_fail>
 16c:	21212137          	lui	sp,0x21212
 170:	12110113          	addi	sp,sp,289 # 21212121 <__stack_top+0x2120fd21>
 174:	01f00193          	li	gp,31
 178:	00311233          	sll	tp,sp,gp
 17c:	01d00e93          	li	t4,29
 180:	800000b7          	lui	ra,0x80000
 184:	2a121263          	bne	tp,ra,428 <_fail>
 188:	21212137          	lui	sp,0x21212
 18c:	12110113          	addi	sp,sp,289 # 21212121 <__stack_top+0x2120fd21>
 190:	fe000193          	li	gp,-32
 194:	00311233          	sll	tp,sp,gp
 198:	02100e93          	li	t4,33
 19c:	212120b7          	lui	ra,0x21212
 1a0:	12108093          	addi	ra,ra,289 # 21212121 <__stack_top+0x2120fd21>
 1a4:	28121263          	bne	tp,ra,428 <_fail>
 1a8:	21212137          	lui	sp,0x21212
 1ac:	12110113          	addi	sp,sp,289 # 21212121 <__stack_top+0x2120fd21>
 1b0:	fe100193          	li	gp,-31
 1b4:	00311233          	sll	tp,sp,gp
 1b8:	02200e93          	li	t4,34
 1bc:	424240b7          	lui	ra,0x42424
 1c0:	24208093          	addi	ra,ra,578 # 42424242 <__stack_top+0x42421e42>
 1c4:	26121263          	bne	tp,ra,428 <_fail>
 1c8:	21212137          	lui	sp,0x21212
 1cc:	12110113          	addi	sp,sp,289 # 21212121 <__stack_top+0x2120fd21>
 1d0:	fe700193          	li	gp,-25
 1d4:	00311233          	sll	tp,sp,gp
 1d8:	02300e93          	li	t4,35
 1dc:	909090b7          	lui	ra,0x90909
 1e0:	08008093          	addi	ra,ra,128 # 90909080 <__stack_top+0x90906c80>
 1e4:	24121263          	bne	tp,ra,428 <_fail>
 1e8:	21212137          	lui	sp,0x21212
 1ec:	12110113          	addi	sp,sp,289 # 21212121 <__stack_top+0x2120fd21>
 1f0:	fee00193          	li	gp,-18
 1f4:	00311233          	sll	tp,sp,gp
 1f8:	02400e93          	li	t4,36
 1fc:	484840b7          	lui	ra,0x48484
 200:	22121463          	bne	tp,ra,428 <_fail>
 204:	21212137          	lui	sp,0x21212
 208:	12110113          	addi	sp,sp,289 # 21212121 <__stack_top+0x2120fd21>
 20c:	fff00193          	li	gp,-1
 210:	00311233          	sll	tp,sp,gp
 214:	02500e93          	li	t4,37
 218:	800000b7          	lui	ra,0x80000
 21c:	20121663          	bne	tp,ra,428 <_fail>
 220:	00100113          	li	sp,1
 224:	00700193          	li	gp,7
 228:	00311133          	sll	sp,sp,gp
 22c:	02b00e93          	li	t4,43
 230:	08000093          	li	ra,128
 234:	1e111a63          	bne	sp,ra,428 <_fail>
 238:	00100113          	li	sp,1
 23c:	00e00193          	li	gp,14
 240:	003111b3          	sll	gp,sp,gp
 244:	02c00e93          	li	t4,44
 248:	000040b7          	lui	ra,0x4
 24c:	1c119e63          	bne	gp,ra,428 <_fail>
 250:	00300113          	li	sp,3
 254:	00211133          	sll	sp,sp,sp
 258:	02d00e93          	li	t4,45
 25c:	01800093          	li	ra,24
 260:	1c111463          	bne	sp,ra,428 <_fail>
 264:	00100113          	li	sp,1
 268:	00700193          	li	gp,7
 26c:	00311233          	sll	tp,sp,gp
 270:	00020393          	mv	t2,tp
 274:	03300e93          	li	t4,51
 278:	08000093          	li	ra,128
 27c:	1a139663          	bne	t2,ra,428 <_fail>
 280:	00100113          	li	sp,1
 284:	00e00193          	li	gp,14
 288:	00311233          	sll	tp,sp,gp
 28c:	00000013          	nop
 290:	00020393          	mv	t2,tp
 294:	03400e93          	li	t4,52
 298:	000040b7          	lui	ra,0x4
 29c:	18139663          	bne	t2,ra,428 <_fail>
 2a0:	00100113          	li	sp,1
 2a4:	01f00193          	li	gp,31
 2a8:	00311233          	sll	tp,sp,gp
 2ac:	00000013          	nop
 2b0:	00000013          	nop
 2b4:	00020393          	mv	t2,tp
 2b8:	03500e93          	li	t4,53
 2bc:	800000b7          	lui	ra,0x80000
 2c0:	16139463          	bne	t2,ra,428 <_fail>
 2c4:	00100113          	li	sp,1
 2c8:	00700193          	li	gp,7
 2cc:	00311233          	sll	tp,sp,gp
 2d0:	03700e93          	li	t4,55
 2d4:	08000093          	li	ra,128
 2d8:	14121863          	bne	tp,ra,428 <_fail>
 2dc:	00100113          	li	sp,1
 2e0:	00e00193          	li	gp,14
 2e4:	00000013          	nop
 2e8:	00311233          	sll	tp,sp,gp
 2ec:	03800e93          	li	t4,56
 2f0:	000040b7          	lui	ra,0x4
 2f4:	12121a63          	bne	tp,ra,428 <_fail>
 2f8:	00100113          	li	sp,1
 2fc:	01f00193          	li	gp,31
 300:	00000013          	nop
 304:	00000013          	nop
 308:	00311233          	sll	tp,sp,gp
 30c:	03900e93          	li	t4,57
 310:	800000b7          	lui	ra,0x80000
 314:	10121a63          	bne	tp,ra,428 <_fail>
 318:	00100113          	li	sp,1
 31c:	00000013          	nop
 320:	00700193          	li	gp,7
 324:	00311233          	sll	tp,sp,gp
 328:	03a00e93          	li	t4,58
 32c:	08000093          	li	ra,128
 330:	0e121c63          	bne	tp,ra,428 <_fail>
 334:	00100113          	li	sp,1
 338:	00000013          	nop
 33c:	00e00193          	li	gp,14
 340:	00000013          	nop
 344:	00311233          	sll	tp,sp,gp
 348:	03b00e93          	li	t4,59
 34c:	000040b7          	lui	ra,0x4
 350:	0c121c63          	bne	tp,ra,428 <_fail>
 354:	00100113          	li	sp,1
 358:	00000013          	nop
 35c:	00000013          	nop
 360:	01f00193          	li	gp,31
 364:	00311233          	sll	tp,sp,gp
 368:	03c00e93          	li	t4,60
 36c:	800000b7          	lui	ra,0x80000
 370:	0a121c63          	bne	tp,ra,428 <_fail>
 374:	00700193          	li	gp,7
 378:	00100113          	li	sp,1
 37c:	00311233          	sll	tp,sp,gp
 380:	03e00e93          	li	t4,62
 384:	08000093          	li	ra,128
 388:	0a121063          	bne	tp,ra,428 <_fail>
 38c:	00e00193          	li	gp,14
 390:	00100113          	li	sp,1
 394:	00000013          	nop
 398:	00311233          	sll	tp,sp,gp
 39c:	03f00e93          	li	t4,63
 3a0:	000040b7          	lui	ra,0x4
 3a4:	08121263          	bne	tp,ra,428 <_fail>
 3a8:	01f00193          	li	gp,31
 3ac:	00100113          	li	sp,1
 3b0:	00000013          	nop
 3b4:	00000013          	nop
 3b8:	00311233          	sll	tp,sp,gp
 3bc:	04000e93          	li	t4,64
 3c0:	800000b7          	lui	ra,0x80000
 3c4:	06121263          	bne	tp,ra,428 <_fail>
 3c8:	00700193          	li	gp,7
 3cc:	00000013          	nop
 3d0:	00100113          	li	sp,1
 3d4:	00311233          	sll	tp,sp,gp
 3d8:	04100e93          	li	t4,65
 3dc:	08000093          	li	ra,128
 3e0:	04121463          	bne	tp,ra,428 <_fail>
 3e4:	00e00193          	li	gp,14
 3e8:	00000013          	nop
 3ec:	00100113          	li	sp,1
 3f0:	00000013          	nop
 3f4:	00311233          	sll	tp,sp,gp
 3f8:	04200e93          	li	t4,66
 3fc:	000040b7          	lui	ra,0x4
 400:	02121463          	bne	tp,ra,428 <_fail>
 404:	01f00193          	li	gp,31
 408:	00000013          	nop
 40c:	00000013          	nop
 410:	00100113          	li	sp,1
 414:	00311233          	sll	tp,sp,gp
 418:	04300e93          	li	t4,67
 41c:	800000b7          	lui	ra,0x80000
 420:	00121463          	bne	tp,ra,428 <_fail>

00000424 <_pass>:
 424:	00100e93          	li	t4,1

00000428 <_fail>:
 428:	00100113          	li	sp,1
 42c:	015e9073          	csrw	seed,t4
 430:	00201063          	bne	zero,sp,430 <_fail+0x8>
 434:	00000013          	nop
 438:	00000013          	nop
 43c:	00000013          	nop
 440:	00000013          	nop
 444:	00000013          	nop
 448:	00000013          	nop
 44c:	00000013          	nop
 450:	00000013          	nop
 454:	00000013          	nop
 458:	00000013          	nop
	...
